C51 COMPILER V9.59.0.0   SC95F_PWM                                                         03/22/2024 16:29:18 PAGE 1   
C51 COMPILER V9.59.0.0, COMPILATION OF MODULE SC95F_PWM
OBJECT MODULE PLACED IN D:\tfxu\Project\AM901_0308\APP\Keil_C\Project\..\Output\sc95f_pwm.obj
COMPILER INVOKED BY: D:\Keil_v5\C51\bin\C51.exe ..\FWLib\SC95F_Lib\src\sc95f_pwm.c OMF2 INTVECTOR(0X2800) DEFINE(SC95F8x
                    -1xB) LARGE INCDIR(D:\tfxu\Project\AM901_0308\APP\Keil_C\Project\..\FWLib\SC95F_Lib\inc;D:\tfxu\Project\AM901_0308\APP\Ke
                    -il_C\Project\..\User;D:\tfxu\Project\AM901_0308\APP\Keil_C\Project\..\IOT_DRIVER\XIAOMI;D:\tfxu\Project\AM901_0308\APP\K
                    -eil_C\Project\..\Drivers;D:\tfxu\Project\AM901_0308\APP\Keil_C\Project\..\Drivers\TKDriver\C;D:\tfxu\Project\AM901_0308\
                    -APP\Keil_C\Project\..\List\..\Apps;D:\tfxu\Project\AM901_0308\APP\Keil_C\Project\..\Apps) BROWSE DEBUG OBJECTEXTEND OPTI
                    -MIZE(8,SIZE) CODE NOCOND SYMBOLS LISTINCLUDE PRINT(D:\tfxu\Project\AM901_0308\APP\Keil_C\Project\..\List\sc95f_pwm.lst) 
                    -OBJECT(D:\tfxu\Project\AM901_0308\APP\Keil_C\Project\..\Output\sc95f_pwm.obj)
line level    source
   1          
   2          
   3          
   4          
   5          
   6          
   7          
   8          
   9          
  10          
  11          #include "sc95f_pwm.h"
   1      =1  
   2      =1  
   3      =1  
   4      =1  
   5      =1  
   6      =1  
   7      =1  
   8      =1  
   9      =1  
  10      =1  
  11      =1  #ifndef _sc95f_PWM_H_
  12      =1  #define _sc95f_PWM_H_
  13      =1  
  14      =1  #include "sc95f.h"
   1      =2  
   2      =2  
   3      =2  
   4      =2  
   5      =2  
   6      =2  
   7      =2  
   8      =2  
   9      =2  
  10      =2  
  11      =2  #ifndef _sc95f_H
  12      =2  #define _sc95f_H
  13      =2  
  14      =2  #ifdef SC95F8x1x
  17      =2  #ifdef SC95F7x1x
  20      =2  #ifdef SC95F8x2x 
  23      =2  #ifdef SC95F7x2x
  26      =2  #ifdef SC95FWxx
  29      =2  #ifdef SC95F8x3x
  32      =2  #ifdef SC95F7x3x
  35      =2  #ifdef SC95F8x6x
  38      =2  #ifdef SC95F7x6x
  41      =2  #ifdef SC95F8x1xB
  42      =2    #include "SC95F8x1xB_C.H"
   1      =3  
  11      =3  #ifndef _SC95F861xB_H_
  12      =3  #define _SC95F861xB_H_
  13      =3  
  14      =3  
  15      =3  
  16      =3  sfr   SP    = 0X81;  
  17      =3  sfr   DPL   = 0X82;  
  18      =3  sfr   DPH   = 0X83;  
  19      =3  sfr   DPL1  = 0X84;  
  20      =3  sfr   DPH1  = 0X85;  
  21      =3  sfr   DPS   = 0X86;  
  22      =3  sfr   PSW   = 0XD0;  
  23      =3  sfr   ACC   = 0XE0;  
  24      =3  sfr   EXA0  = 0XE9;  
  25      =3  sfr   EXA1  = 0XEA;  
  26      =3  sfr   EXA2  = 0XEB;  
  27      =3  sfr   EXA3  = 0XEC;  
  28      =3  sfr   EXBL  = 0XED;  
  29      =3  sfr   EXBH  = 0XEE;  
  30      =3  sfr   B     = 0XF0;  
  31      =3  
  32      =3  
  33      =3  sfr   EXADH = 0XF7;  
  34      =3  
  35      =3  
  36      =3  sfr   ROMBNK = 0XDF;  
  37      =3  
  38      =3  
  39      =3  sfr   PCON = 0X87;  
  40      =3  
  41      =3  
  42      =3  sfr   IE  = 0XA8;  
  43      =3  sfr   IE1 = 0XA9;  
  44      =3  sfr   IE2 = 0XAA;  
  45      =3  sfr   IP  = 0XB8;  
  46      =3  sfr   IP1 = 0XB9;  
  47      =3  sfr   IP2 = 0XBA;  
  48      =3  
  49      =3  
  50      =3  sfr   P0      = 0X80;  
  51      =3  sfr   P1      = 0X90;  
  52      =3  sfr       P1CON   = 0X91;  
  53      =3  sfr   P1PH        = 0X92;  
  54      =3  sfr   DDRCON  = 0X93;  
  55      =3  sfr   P1VO    = 0X94;  
  56      =3  sfr   IOHCON0 = 0X96;  
  57      =3  sfr   IOHCON1 = 0X97;  
  58      =3  sfr       P0CON   = 0X9A;  
  59      =3  sfr       P0PH    = 0X9B;  
  60      =3  sfr   P0VO    = 0X9C;  
  61      =3  sfr   P2      = 0XA0;  
  62      =3  sfr       P2CON   = 0XA1;  
  63      =3  sfr   P2PH        = 0XA2;  
  64      =3  sfr   P2VO    = 0XA3;  
  65      =3  sfr   P3      = 0XB0;  
  66      =3  sfr   P3CON   = 0XB1;  
  67      =3  sfr   P3PH    = 0XB2;  
  68      =3  sfr   P3VO    = 0XB3;  
  69      =3  sfr   P4      = 0XC0;  
  70      =3  sfr   P4CON   = 0XC1;  
  71      =3  sfr   P4PH    = 0XC2;  
  72      =3  sfr   P5      = 0XD8;  
  73      =3  sfr   P5CON   = 0XD9;  
  74      =3  sfr   P5PH    = 0XDA;  
  75      =3  
  76      =3  
  77      =3  sfr   CMPCFG  = 0XB6;  
  78      =3  sfr   CMPCON  = 0XB7;  
  79      =3  
  80      =3         
  81      =3  sfr   TCON   = 0X88;  
  82      =3  sfr   TMOD   = 0X89;  
  83      =3  sfr   TL0    = 0X8A;  
  84      =3  sfr   TL1    = 0X8B;  
  85      =3  sfr   TH0    = 0X8C;  
  86      =3  sfr   TH1    = 0X8D;  
  87      =3  sfr   TMCON  = 0X8E;  
  88      =3  sfr   TXCON  = 0XC8;  
  89      =3  sfr   TXMOD  = 0XC9;  
  90      =3  sfr   RCAPXL = 0XCA;  
  91      =3  sfr   RCAPXH = 0XCB;  
  92      =3  sfr   TLX    = 0XCC;  
  93      =3  sfr   THX    = 0XCD;  
  94      =3  sfr   TXINX  = 0XCE;  
  95      =3  
  96      =3  
  97      =3  sfr       ADCCFG0 = 0XAB;  
  98      =3  sfr       ADCCFG1 = 0XAC;  
  99      =3  sfr   ADCCON  = 0XAD;  
 100      =3  sfr   ADCVL   = 0XAE;  
 101      =3  sfr   ADCVH   = 0XAF;  
 102      =3  sfr   ADCCFG2 = 0XB5;  
 103      =3  
 104      =3  
 105      =3  sfr   PWMCFG  = 0XD1;  
 106      =3  sfr   PWMCON0 = 0XD2;  
 107      =3  sfr   PWMCON1 = 0XD3;  
 108      =3  sfr   PWMPDL  = 0XD4;  
 109      =3  sfr   PWMPDH  = 0XD5;  
 110      =3  sfr   PWMDFR  = 0XD6;  
 111      =3  sfr   PWMFLT  = 0XD7;  
 112      =3  
 113      =3  
 114      =3  sfr   WDTCON = 0XCF;  
 115      =3  
 116      =3  
 117      =3  sfr       BTMCON = 0XFB;  
 118      =3  
 119      =3  
 120      =3  sfr   INT0F = 0XB4;  
 121      =3  sfr   INT0R = 0XBB;  
 122      =3  sfr   INT1F = 0XBC;  
 123      =3  sfr   INT1R = 0XBD;  
 124      =3  sfr   INT2F = 0XBE;  
 125      =3  sfr   INT2R = 0XBF;  
 126      =3  
 127      =3  
 128      =3  sfr   IAPKEY = 0XF1;  
 129      =3  sfr   IAPADL = 0XF2;  
 130      =3  sfr   IAPADH = 0XF3;  
 131      =3  sfr   IAPADE = 0XF4;  
 132      =3  sfr   IAPDAT = 0XF5;  
 133      =3  sfr   IAPCTL = 0XF6;  
 134      =3  
 135      =3  
 136      =3  sfr   OTCON = 0X8F;  
 137      =3  sfr   SCON  = 0X98;  
 138      =3  sfr   SBUF  = 0X99;  
 139      =3  
 140      =3  
 141      =3  sfr   US0CON0 = 0X95;  
 142      =3  sfr   US0CON1 = 0X9D;  
 143      =3  sfr   US0CON2 = 0X9E;  
 144      =3  sfr   US0CON3 = 0X9F;  
 145      =3  sfr   US1CON0 = 0XA4;  
 146      =3  sfr   US1CON1 = 0XA5;  
 147      =3  sfr   US1CON2 = 0XA6;  
 148      =3  sfr   US1CON3 = 0XA7;  
 149      =3  sfr   USXCON0 = 0XC4;  
 150      =3  sfr   USXCON1 = 0XC5;  
 151      =3  sfr   USXCON2 = 0XC6;  
 152      =3  sfr   USXCON3 = 0XC7;  
 153      =3  sfr   USXINX  = 0XDC;  
 154      =3  
 155      =3  
 156      =3  
 157      =3  sfr   OPINX = 0XFE;  
 158      =3  sfr   OPREG = 0XFF;  
 159      =3  
 160      =3  
 161      =3  sfr   OPERCON = 0XEF;  
 162      =3  sfr   CRCINX  = 0XFC;  
 163      =3  sfr   CRCREG  = 0XFD;  
 164      =3  
 165      =3  
 166      =3  
 167      =3  
 168      =3  sbit  CY  = PSW^7;  
             -薪位，或者减法运算最高位有借位?
 169      =3  sbit  AC  = PSW^6;  
             -?
 170      =3  sbit  F0  = PSW^5;  
 171      =3  sbit  RS1 = PSW^4;  
 172      =3  sbit  RS0 = PSW^3;  
 173      =3  sbit  OV  = PSW^2;  
 174      =3  sbit  F1  = PSW^1;  
 175      =3  sbit  P   = PSW^0;  
 176      =3  
 177      =3  
 178      =3  sbit  TFX   = TXCON^7;  
 179      =3  sbit  EXFX  = TXCON^6;  
 180      =3  sbit  RCLKX = TXCON^5;  
 181      =3  sbit  TCLKX = TXCON^4;  
 182      =3  sbit  EXENX = TXCON^3;  
 183      =3  sbit  TRX   = TXCON^2;  
 184      =3  sbit  TX    = TXCON^1;  
 185      =3  sbit  CP    = TXCON^0;  
 186      =3  
 187      =3  
 188      =3  sbit  IPADC  = IP^6;  
             -热ㄊ?“高”
 189      =3  sbit  IPT2   = IP^5;  
             -嫌畔热ㄊ?“高”
 190      =3  sbit  IPUART = IP^4;  
             -先权是 “高”
 191      =3  sbit  IPT1   = IP^3;  
             -嫌畔热ㄊ?“高”
 192      =3  sbit  IPINT1 = IP^2;  
             -先权是 “高”
 193      =3  sbit  IPT0   = IP^1;  
             -嫌畔热ㄊ?“高”
 194      =3  sbit  IPINT0 = IP^0;  
             -高
 195      =3  
 196      =3  
 197      =3  sbit  EA    = IE^7;  
 198      =3  sbit  EADC  = IE^6;  
 199      =3  sbit  ET2   = IE^5;  
 200      =3  sbit  EUART = IE^4;  
 201      =3  sbit  ET1   = IE^3;  
 202      =3  sbit  EINT1 = IE^2;  
 203      =3  sbit  ET0   = IE^1;  
 204      =3  sbit  EINT0 = IE^0;  
 205      =3  
 206      =3  
 207      =3  sbit  TF1 = TCON^7;  
             -保硬件清?”。
 208      =3  sbit  TR1 = TCON^6;  
 209      =3  sbit  TF0 = TCON^5;  
             -保硬件清?”。
 210      =3  sbit  TR0 = TCON^4;  
 211      =3  
 212      =3  
 213      =3  sbit  SM0 = SCON^7;  
             -双工异步通信 11: 模式3，11位全双工异步通信
 214      =3  sbit  SM1 = SCON^6;  
 215      =3  sbit  SM2 = SCON^5;  
             -锨肭?  1：收到一个完整的数据帧时，只有当RB8=1时才会置位RI产生中断请求
 216      =3  sbit  REN = SCON^4;  
 217      =3  sbit  TB8 = SCON^3;  
 218      =3  sbit  RB8 = SCON^2;  
 219      =3  sbit  TI  = SCON^1;  
 220      =3  sbit  RI  = SCON^0;  
 221      =3  
 222      =3  
 223      =3  
 230      =3  sbit  P07 = P0^7;
 231      =3  sbit  P06 = P0^6;
 232      =3  sbit  P05 = P0^5;
 233      =3  sbit  P04 = P0^4;
 234      =3  sbit  P03 = P0^3;
 235      =3  sbit  P02 = P0^2;
 236      =3  sbit  P01 = P0^1;
 237      =3  sbit  P00 = P0^0;
 238      =3  
 239      =3  
 240      =3  
 247      =3  sbit  P17 = P1^7;
 248      =3  sbit  P16 = P1^6;
 249      =3  sbit  P15 = P1^5;
 250      =3  sbit  P14 = P1^4;
 251      =3  sbit  P13 = P1^3;
 252      =3  sbit  P12 = P1^2;
 253      =3  sbit  P11 = P1^1;
 254      =3  sbit  P10 = P1^0;
 255      =3  
 256      =3  
 263      =3  sbit  P27 = P2^7;
 264      =3  sbit  P26 = P2^6;
 265      =3  sbit  P25 = P2^5;
 266      =3  sbit  P24 = P2^4;
 267      =3  sbit  P23 = P2^3;
 268      =3  sbit  P22 = P2^2;
 269      =3  sbit  P21 = P2^1;
 270      =3  sbit  P20 = P2^0;
 271      =3  
 272      =3  
 279      =3  sbit  P37 = P3^7;
 280      =3  sbit  P36 = P3^6;
 281      =3  sbit  P35 = P3^5;
 282      =3  sbit  P34 = P3^4;
 283      =3  sbit  P33 = P3^3;
 284      =3  sbit  P32 = P3^2;
 285      =3  sbit  P31 = P3^1;
 286      =3  sbit  P30 = P3^0;
 287      =3  
 288      =3  
 295      =3  sbit  P47 = P4^7;
 296      =3  sbit  P46 = P4^6;
 297      =3  sbit  P45 = P4^5;
 298      =3  sbit  P44 = P4^4;
 299      =3  sbit  P43 = P4^3;
 300      =3  sbit  P42 = P4^2;
 301      =3  sbit  P41 = P4^1;
 302      =3  sbit  P40 = P4^0;
 303      =3  
 304      =3  
 311      =3  sbit  P55 = P5^5;
 312      =3  sbit  P54 = P5^4;
 313      =3  sbit  P53 = P5^3;
 314      =3  sbit  P52 = P5^2;
 315      =3  sbit  P51 = P5^1;
 316      =3  sbit  P50 = P5^0;
 317      =3  
 318      =3                              
             -        
 323      =3  #define  SC95F8616B_NIO_Init()   {P4CON|=0xC0,P5CON|=0x30;}                                               
             -  
 324      =3  #define  SC95F8615B_NIO_Init()   {P0CON|=0x0F,P1CON|=0xF0,P3CON|=0xF0,P4CON|=0xC0,P5CON|=0xF0;}           
             -  
 325      =3  #define  SC95F8613B_NIO_Init()   {P0CON|=0x0F,P1CON|=0xF0,P3CON|=0xF0,P4CON|=0xC0,P5CON|=0xFF;}           
             -  
 326      =3  #define  SC95F8612B_NIO_Init()   {P0CON|=0x0F,P1CON|=0xF0,P2CON|=0XF0,P3CON|=0xF0,P4CON|=0xF0,P5CON|=0xFF;
             -} 
 327      =3  #endif
  43      =2  #endif
  44      =2  #ifdef SC95F7x1xB
  47      =2  #ifdef SC95R751
  50      =2  #ifdef SC95F7610B
  53      =2  #ifdef SC95F7619B
  56      =2  #ifdef SC95FS52x
  59      =2  #ifdef SC95R602
  62      =2  #ifdef SC95R605
  65      =2  #ifdef SC95F8x7x
  68      =2  #ifdef SC95F7x7x
  71      =2  #ifdef SC95R503
  74      =2  
  75      =2  #define enableInterrupts()    EA=1       
  76      =2  #define disableInterrupts()   EA=0       
  77      =2  
  78      =2  #define     __I     volatile const   
  79      =2  #define     __O     volatile         
  80      =2  #define     __IO    volatile         
  81      =2  
  82      =2  
  83      =2  typedef   signed char     int8_t;
  84      =2  typedef   signed short    int16_t;
  85      =2  typedef   signed long     int32_t;
  86      =2  
  87      =2  
  88      =2  typedef unsigned char     uint8_t;
  89      =2  typedef unsigned short    uint16_t;
  90      =2  typedef unsigned long     uint32_t;
  91      =2  
  92      =2  typedef int32_t  s32;
  93      =2  typedef int16_t  s16;
  94      =2  typedef int8_t   s8;
  95      =2  
  96      =2  typedef uint32_t  u32;
  97      =2  typedef uint16_t  u16;
  98      =2  typedef uint8_t   u8;
  99      =2  
 100      =2  
 101      =2  typedef enum {FALSE = 0, TRUE = !FALSE} bool;
 102      =2  
 103      =2  typedef enum {RESET = 0, SET = !RESET} FlagStatus, ITStatus, BitStatus;
 104      =2  
 105      =2  typedef enum {DISABLE = 0, ENABLE = !DISABLE} FunctionalState;
 106      =2  
 107      =2  typedef enum {ERROR = 0, SUCCESS = !ERROR} ErrorStatus;
 108      =2  
 109      =2  typedef enum 
 110      =2  {
 111      =2    Status_ERROR          = 0x00U,
 112      =2    Status_OK                     = 0x01U,
 113      =2    Status_BUSY           = 0x02U,
 114      =2    Status_TIMEOUT        = 0x03U
 115      =2  } StatusTypeDef;
 116      =2  
 117      =2  typedef enum {LOW = 0, HIGH = !LOW} PriorityStatus;
 118      =2  
 119      =2  #define SET_BIT(SFR,BIT)                                ((SFR) |= (BIT))
 120      =2  
 121      =2  #define CLEAR_BIT(SFR,BIT)                      ((SFR) &= ~(BIT))
 122      =2  
 123      =2  #define READ_BIT(SFR, BIT)      ((SFR) & (BIT))
 124      =2  
 125      =2  #define CLEAR_REG(SFR)          ((SFR) = (0x0))
 126      =2  
 127      =2  #define WRITE_REG(SFR, VAL)     ((SFR) = (VAL))
 128      =2  
 129      =2  #endif
  15      =1  #if defined(SC95F8x1x) || defined(SC95F7x1x)
  77      =1  
  78      =1  #if defined(SC95F8x2x) || defined(SC95F7x2x) || defined(SC95FS52x)
 141      =1  
 142      =1  #if defined(SC95FWxx)
 249      =1  
 250      =1  #if defined(SC95F8x3x) || defined(SC95F7x3x) || defined (SC95F8x6x) || defined (SC95F7x6x)  || defined (SC
             -95F8x1xB) || defined (SC95F7x1xB)\
 251      =1           || defined (SC95R602)  || defined (SC95R605) || defined (SC95F8x7x) || defined (SC95F7x7x)|| defined(SC9
             -5R503)
 252      =1  
 253      =1  #if defined (SC95F8x7x) || defined (SC95F7x7x)|| defined(SC95R503)
 265      =1  
 266      =1  typedef enum
 267      =1  {
 268      =1    PWM0_PRESSEL_FHRC_D1 = (uint8_t)0x00, 
 269      =1    PWM0_PRESSEL_FHRC_D2 = (uint8_t)0x10, 
 270      =1    PWM0_PRESSEL_FHRC_D4 = (uint8_t)0x20, 
 271      =1    PWM0_PRESSEL_FHRC_D8 = (uint8_t)0x30, 
 272      =1    PWM2_PRESSEL_FHRC_D1 = (uint8_t)0x02, 
 273      =1    PWM3_PRESSEL_FHRC_D1 = (uint8_t)0x03, 
 274      =1    PWM4_PRESSEL_FHRC_D1 = (uint8_t)0x04, 
 275      =1  } PWM_PresSel_TypeDef;
 276      =1  #endif
 277      =1  
 278      =1  
 279      =1  typedef enum
 280      =1  {
 281      =1    PWM00 = (uint8_t)0x00, 
 282      =1    PWM01 = (uint8_t)0x01, 
 283      =1    PWM02 = (uint8_t)0x02, 
 284      =1    PWM03 = (uint8_t)0x03, 
 285      =1    PWM04 = (uint8_t)0x04, 
 286      =1    PWM05 = (uint8_t)0x05, 
 287      =1    PWM06 = (uint8_t)0x06, 
 288      =1    PWM07 = (uint8_t)0x07, 
 289      =1    PWM20 = (uint8_t)0x20, 
 290      =1    PWM21 = (uint8_t)0x21, 
 291      =1    PWM30 = (uint8_t)0x32, 
 292      =1    PWM31 = (uint8_t)0x33, 
 293      =1    PWM40 = (uint8_t)0x44, 
 294      =1    PWM41 = (uint8_t)0x45, 
 295      =1  } PWM_OutputPin_TypeDef;
 296      =1  
 297      =1  
 298      =1  typedef enum
 299      =1  {
 300      =1    PWM00PWM01 = (uint8_t)0x00, 
 301      =1    PWM02PWM03 = (uint8_t)0x02, 
 302      =1    PWM04PWM05 = (uint8_t)0x04, 
 303      =1    PWM06PWM07 = (uint8_t)0x06  
 304      =1  } PWM_ComplementaryOutputPin_TypeDef;
 305      =1  
 306      =1  
 307      =1  typedef enum
 308      =1  {
 309      =1    PWM0_Edge_Aligned_Mode = (uint8_t)0x00,     
 310      =1    PWM0_Center_Alignment_Mode = (uint8_t)0x01, 
 311      =1  } PWM_Aligned_Mode_TypeDef;
 312      =1  
 313      =1  
 314      =1  typedef enum
 315      =1  {
 316      =1    PWM0_Latch_Mode = ((uint8_t)0x00),    
 317      =1    PWM0_Immediate_Mode = ((uint8_t)0x20) 
 318      =1  } PWM_FaultDetectionMode_TypeDef;
 319      =1  
 320      =1  
 321      =1  typedef enum
 322      =1  {
 323      =1    PWM0_FaultDetectionVoltage_Low = ((uint8_t)0x00), 
 324      =1    PWM0_FaultDetectionVoltage_high = ((uint8_t)0x10) 
 325      =1  } PWM_FaultDetectionVoltageSelect_TypeDef;
 326      =1  
 327      =1  
 328      =1  typedef enum
 329      =1  {
 330      =1    PWM0_WaveFilteringTime_0us = ((uint8_t)0x00), 
 331      =1    PWM0_WaveFilteringTime_1us = ((uint8_t)0x01), 
 332      =1    PWM0_WaveFilteringTime_4us = ((uint8_t)0x02), 
 333      =1    PWM0_WaveFilteringTime_16us = ((uint8_t)0x03) 
 334      =1  } PWM_FaultDetectionWaveFilteringTime_TypeDef;
 335      =1  
 336      =1  
 337      =1  typedef enum
 338      =1  {
 339      =1    PWM0_Type = (uint8_t)0x00, 
 340      =1    PWM2_Type = (uint8_t)0x02, 
 341      =1    PWM3_Type = (uint8_t)0x03, 
 342      =1    PWM4_Type = (uint8_t)0x04, 
 343      =1  } PWM_Type_TypeDef;
 344      =1  #endif
 345      =1  
 346      =1  #if defined (SC95R751)
 414      =1  
 415      =1  #if defined(SC95F7610B)
 466      =1  
 467      =1  #if defined(SC95F7619B)
 517      =1  
 518      =1  
 519      =1  typedef enum
 520      =1  {
 521      =1    PWM_OUTPUTSTATE_DISABLE = ((uint8_t)0x00), 
 522      =1    PWM_OUTPUTSTATE_ENABLE = ((uint8_t)0x01)   
 523      =1  } PWM_OutputState_TypeDef;
 524      =1  
 525      =1  
 526      =1  typedef enum
 527      =1  {
 528      =1    PWM_POLARITY_NON_INVERT = ((uint8_t)0x00), 
 529      =1    PWM_POLARITY_INVERT = ((uint8_t)0x01)      
 530      =1  } PWM_Polarity_TypeDef;
 531      =1  
 532      =1  
 533      =1  typedef enum
 534      =1  {
 535      =1    PWM_DutyChange_Up = (uint8_t)0x01,            
 536      =1          PWM_DutyChange_Dowm = (uint8_t)0x00,    
 537      =1  } PWM_DutyChange_TypeDef;
 538      =1  
 539      =1  #if defined(SC95FWxx) || defined(SC95F8x3x) || defined(SC95F7x3x) || defined (SC95F8x6x) || defined (SC95F
             -7x6x)\
 540      =1                  || defined (SC95F8x1xB) || defined (SC95F7x1xB) || defined (SC95R751) || defined (SC95F7610B) || defined
             - (SC95F7619B)\
 541      =1                  || defined (SC95R602)  || defined (SC95R605) || defined (SC95F8x7x) || defined (SC95F7x7x)|| defined(SC9
             -5R503)
 542      =1  
 543      =1  void PWM_CmdEX(PWM_Type_TypeDef PWM_Type, FunctionalState NewState);
 544      =1  FlagStatus PWM_GetFlagStatusEX(PWM_Type_TypeDef PWM_Type);
 545      =1  void PWM_ClearFlagEX(PWM_Type_TypeDef PWM_Type);
 546      =1  void PWM_IndependentModeConfigEX(PWM_OutputPin_TypeDef PWM_OutputPin, uint16_t PWM_DutyCycle,
 547      =1                                   PWM_OutputState_TypeDef PWM_OutputState);
 548      =1  void PWM_ComplementaryModeConfigEX(PWM_ComplementaryOutputPin_TypeDef PWM_ComplementaryOutputPin,
 549      =1                                     uint16_t PWM_DutyCycle,
 550      =1                                     PWM_OutputState_TypeDef PWM_OutputState);
 551      =1  
 552      =1  void PWM_DeadTimeConfigEX(PWM_Type_TypeDef PWM_Type, uint8_t PWM_RisingDeadTime, uint8_t PWM_FallingDeadTi
             -me);
 553      =1  #if !defined (SC95F7610B) && !defined (SC95F7619B)
 554      =1  FlagStatus PWM_GetFaultDetectionFlagStatusEX(PWM_Type_TypeDef PWM_Type);
 555      =1  void PWM_ClearFaultDetectionFlagEX(PWM_Type_TypeDef PWM_Type);
 556      =1  void PWM_FaultDetectionConfigEX(PWM_Type_TypeDef PWM_Type, FunctionalState NewState);
 557      =1  void PWM_FaultDetectionModeConfigEX(PWM_Type_TypeDef PWM_Type,
 558      =1                                      PWM_FaultDetectionMode_TypeDef FaultDetectionMode,
 559      =1                                      PWM_FaultDetectionVoltageSelect_TypeDef FaultDetectionVoltageSelect,
 560      =1                                      PWM_FaultDetectionWaveFilteringTime_TypeDef FaultDetectionWaveFilterin
             -gTime);
 561      =1  #endif
 562      =1  void PWM_ITConfigEX(PWM_Type_TypeDef PWM_Type, FunctionalState NewState, PriorityStatus Priority);
 563      =1  #endif
 564      =1  
 565      =1  void PWM_DeInit(void);
 566      =1  void PWM_Init(PWM_PresSel_TypeDef PWM_PresSel, uint16_t PWM_Period);
 567      =1  void PWM_OutputStateConfig(uint8_t PWM_OutputPin, PWM_OutputState_TypeDef PWM_OutputState);
 568      =1  void PWM_PolarityConfig(uint8_t PWM_OutputPin, PWM_Polarity_TypeDef PWM_Polarity);
 569      =1  void PWM_IndependentModeConfig(PWM_OutputPin_TypeDef PWM_OutputPin, uint16_t PWM_DutyCycle);
 570      =1  void PWM_ComplementaryModeConfig(PWM_ComplementaryOutputPin_TypeDef PWM_ComplementaryOutputPin,
 571      =1                                   uint16_t PWM_DutyCycle);
 572      =1  void PWM_DeadTimeConfig(uint8_t PWM_RisingDeadTime, uint8_t PWM_fallingDeadTime);
 573      =1  void PWM_Cmd(FunctionalState NewState);
 574      =1  void PWM_ITConfig(FunctionalState NewState, PriorityStatus Priority);
 575      =1  
 576      =1  void PWM_Aligned_Mode_Select(PWM_Aligned_Mode_TypeDef PWM_Aligned_Mode);
 577      =1  FlagStatus PWM_GetFlagStatus(void);
 578      =1  void PWM_ClearFlag(void);
 579      =1  #if !defined (SC95F7610B) && !defined (SC95F7619B)
 580      =1  void PWM_ClearFaultDetectionFlag(void);
 581      =1  void PWM_FaultDetectionConfig(FunctionalState NewState);
 582      =1  void PWM_FaultDetectionModeConfig(PWM_FaultDetectionMode_TypeDef FaultDetectionMode,
 583      =1                                    PWM_FaultDetectionVoltageSelect_TypeDef FaultDetectionVoltageSelect,
 584      =1                                    PWM_FaultDetectionWaveFilteringTime_TypeDef FaultDetectionWaveFilteringT
             -ime);
 585      =1  ErrorStatus PWM_IndependentMode_DutyChange(PWM_OutputPin_TypeDef PWM_OutputPin, PWM_DutyChange_TypeDef Cha
             -nge_Direction, uint16_t DutyIncremental);
 586      =1  ErrorStatus PWM_ComplementaryMode_DutyChange(PWM_ComplementaryOutputPin_TypeDef PWM_ComplementaryOutputPin
             -,PWM_DutyChange_TypeDef Change_Direction, uint16_t DutyIncremental);
 587      =1  
 588      =1  FlagStatus PWM_GetFaultDetectionFlagStatus(void);
 589      =1  #endif
 590      =1  #endif
 591      =1  
 592      =1  
  12          
  13          #include "sc95f_timer2.h"
   1      =1  
   2      =1  
   3      =1  
   4      =1  
   5      =1  
   6      =1  
   7      =1  
   8      =1  
   9      =1  
  10      =1  
  11      =1  #ifndef _sc95f_TIMER2_H_
  12      =1  #define _sc95f_TIMER2_H_
  13      =1  
  14      =1  #include "sc95f.H"
   1      =2  
   2      =2  
   3      =2  
   4      =2  
   5      =2  
   6      =2  
   7      =2  
   8      =2  
   9      =2  
  10      =2  
  11      =2  #ifndef _sc95f_H
  15      =1  
  16      =1  typedef enum
  17      =1  {
  18      =1    TIM2_PRESSEL_FSYS_D12 = ((uint8_t)0x00), 
  19      =1    TIM2_PRESSEL_FSYS_D1 = ((uint8_t)0x01)   
  20      =1  } TIM2_PresSel_TypeDef;
  21      =1  
  22      =1  typedef enum
  23      =1  {
  24      =1    TIM2_MODE_TIMER = ((uint8_t)0x01),  
  25      =1    TIM2_MODE_COUNTER = ((uint8_t)0x02) 
  26      =1  } TIM2_CountMode_TypeDef;
  27      =1  
  28      =1  typedef enum
  29      =1  {
  30      =1    TIM2_COUNTDIRECTION_UP = ((uint8_t)0x00),     
  31      =1    TIM2_COUNTDIRECTION_DOWN_UP = ((uint8_t)0x10) 
  32      =1  } TIM2_CountDirection_TypeDef;
  33      =1  
  34      =1  typedef enum
  35      =1  {
  36      =1    TIM2_FLAG_TF2 = (uint8_t)0x80, 
  37      =1    TIM2_FLAG_EXF2 = (uint8_t)0x40 
  38      =1  } TIM2_Flag_TypeDef;
  39      =1  
  40      =1  typedef enum
  41      =1  {
  42      =1    TIM2_WORK_MODE0 = ((uint8_t)0x00), 
  43      =1    TIM2_WORK_MODE1 = ((uint8_t)0x01), 
  44      =1    TIM2_WORK_MODE3 = ((uint8_t)0x03), 
  45      =1  } TIM2_WorkMode_TypeDef;
  46      =1  
  47      =1  
  48      =1  
  49      =1  void TIM2_DeInit();
  50      =1  void TIM2_PrescalerSelection(TIM2_PresSel_TypeDef TIM2_PrescalerSelection);
  51      =1  void TIM2_TimeBaseInit(TIM2_PresSel_TypeDef TIM2_PrescalerSelection,
  52      =1                         TIM2_CountMode_TypeDef TIM2_CountMode,
  53      =1                         TIM2_CountDirection_TypeDef TIM2_CountDirection);
  54      =1  void TIM2_WorkMode0Config(uint16_t TIM2_SetCounter);
  55      =1  void TIM2_WorkMode1Config(uint16_t TIM2_SetCounter);
  56      =1  void TIM2_WorkMode3Config(uint16_t TIM2_SetCounter);
  57      =1  void TIM2_WorkModeConfig(TIM2_WorkMode_TypeDef TIM2_WorkMode, uint16_t TIM2_SetCounter);
  58      =1  void TIM2_SetEXEN2(FunctionalState NewState);
  59      =1  void TIM2_Cmd(FunctionalState NewState);
  60      =1  uint16_t TIM2_GetCapture(void);
  61      =1  void TIM2_ITConfig(FunctionalState NewState, PriorityStatus Priority);
  62      =1  FlagStatus TIM2_GetFlagStatus(TIM2_Flag_TypeDef TIM2_Flag);
  63      =1  void TIM2_ClearFlag(TIM2_Flag_TypeDef TIM2_Flag);
  64      =1  
  65      =1  #endif
  66      =1  
  67      =1  
  14          #include "sc95f_timer3.h"
   1      =1  
   2      =1  
   3      =1  
   4      =1  
   5      =1  
   6      =1  
   7      =1  
   8      =1  
   9      =1  
  10      =1  
  11      =1  #ifndef _sc95f_TIMER3_H_
  12      =1  #define _sc95f_TIMER3_H_
  13      =1  
  14      =1  #include "sc95f.H"
   1      =2  
   2      =2  
   3      =2  
   4      =2  
   5      =2  
   6      =2  
   7      =2  
   8      =2  
   9      =2  
  10      =2  
  11      =2  #ifndef _sc95f_H
  15      =1  
  16      =1  typedef enum
  17      =1  {
  18      =1    TIM3_PRESSEL_FSYS_D12 = ((uint8_t)0x00), 
  19      =1    TIM3_PRESSEL_FSYS_D1 = ((uint8_t)0x01)   
  20      =1  } TIM3_PresSel_TypeDef;
  21      =1  
  22      =1  #if defined(SC95F8x1x) || defined(SC95F7x1x) || defined(SC95FWxx)
  28      =1  
  29      =1  #if defined(SC95F8x2x) || defined(SC95F7x2x) || defined(SC95F8x3x) || defined(SC95F7x3x) || defined (SC95F
             -8x6x) || defined (SC95F7x6x)\
  30      =1                  || defined (SC95F8x1xB) || defined (SC95F7x1xB) || defined (SC95R751) || defined (SC95F7610B) || defined
             - (SC95F7619B) || defined(SC95FS52x)\
  31      =1                  || defined (SC95R602)  || defined (SC95R605) || defined(SC95F8x7x) || defined(SC95F7x7x)|| defined(SC95R
             -503)
  32      =1  typedef enum
  33      =1  {
  34      =1    TIM3_MODE_TIMER = ((uint8_t)0x01),  
  35      =1    TIM3_MODE_COUNTER = ((uint8_t)0x02) 
  36      =1  } TIM3_CountMode_TypeDef;
  37      =1  
  38      =1  typedef enum
  39      =1  {
  40      =1    TIM3_COUNTDIRECTION_UP = ((uint8_t)0x00),     
  41      =1    TIM3_COUNTDIRECTION_DOWN_UP = ((uint8_t)0x10) 
  42      =1  } TIM3_CountDirection_TypeDef;
  43      =1  
  44      =1  typedef enum
  45      =1  {
  46      =1    TIM3_FLAG_TF3 = (uint8_t)0x80, 
  47      =1    TIM3_FLAG_EXF3 = (uint8_t)0x40 
  48      =1  } TIM3_Flag_TypeDef;
  49      =1  
  50      =1  typedef enum
  51      =1  {
  52      =1    TIM3_WORK_MODE0 = ((uint8_t)0x00), 
  53      =1    TIM3_WORK_MODE1 = ((uint8_t)0x01), 
  54      =1    TIM3_WORK_MODE3 = ((uint8_t)0x03), 
  55      =1  } TIM3_WorkMode_TypeDef;
  56      =1  #endif
  57      =1  
  58      =1  void TIM3_DeInit();
  59      =1  void TIM3_PrescalerSelection(TIM3_PresSel_TypeDef TIM3_PrescalerSelection);
  60      =1  void TIM3_WorkMode1Config(uint16_t TIM3_SetCounter);
  61      =1  void TIM3_Cmd(FunctionalState NewState);
  62      =1  void TIM3_ITConfig(FunctionalState NewState, PriorityStatus Priority);
  63      =1  FlagStatus TIM3_GetFlagStatus(TIM3_Flag_TypeDef TIM3_Flag);
  64      =1  void TIM3_ClearFlag(TIM3_Flag_TypeDef TIM3_Flag);
  65      =1  
  66      =1  #if defined(SC95F8x2x) || defined(SC95F7x2x) || defined(SC95F8x3x) || defined(SC95F7x3x) || defined (SC95F
             -8x6x) || defined (SC95F7x6x)\
  67      =1                  || defined (SC95F8x1xB) || defined (SC95F7x1xB) || defined (SC95R751) || defined (SC95F7610B) || defined
             - (SC95F7619B) || defined(SC95FS52x)\
  68      =1                  || defined (SC95R602)  || defined (SC95R605) || defined(SC95F8x7x) || defined(SC95F7x7x)|| defined(SC95R
             -503)
  69      =1  void TIM3_TimeBaseInit(TIM3_CountMode_TypeDef TIM3_CountMode,
  70      =1                         TIM3_CountDirection_TypeDef TIM3_CountDirection);
  71      =1  void TIM3_WorkMode0Config(uint16_t TIM3_SetCounter);
  72      =1  void TIM3_WorkMode3Config(uint16_t TIM3_SetCounter);
  73      =1  void TIM3_WorkModeConfig(TIM3_WorkMode_TypeDef TIM3_WorkMode, uint16_t TIM3_SetCounter);
  74      =1  void TIM3_SetEXEN3(FunctionalState NewState);
  75      =1  #endif
  76      =1  
  77      =1  #endif
  78      =1  
  15          #include "sc95f_timer4.h"
   1      =1  
   2      =1  
   3      =1  
   4      =1  
   5      =1  
   6      =1  
   7      =1  
   8      =1  
   9      =1  
  10      =1  
  11      =1  #ifndef _sc95f_TIMER4_H_
  12      =1  #define _sc95f_TIMER4_H_
  13      =1  
  14      =1  #include "sc95f.H"
   1      =2  
   2      =2  
   3      =2  
   4      =2  
   5      =2  
   6      =2  
   7      =2  
   8      =2  
   9      =2  
  10      =2  
  11      =2  #ifndef _sc95f_H
  15      =1  
  16      =1  typedef enum
  17      =1  {
  18      =1    TIM4_PRESSEL_FSYS_D12 = ((uint8_t)0x00), 
  19      =1    TIM4_PRESSEL_FSYS_D1 = ((uint8_t)0x01)   
  20      =1  } TIM4_PresSel_TypeDef;
  21      =1  
  22      =1  #if defined(SC95F8x1x) || defined(SC95F7x1x) || defined(SC95FWxx)
  28      =1  
  29      =1  #if defined(SC95F8x2x) || defined(SC95F7x2x) || defined(SC95F8x3x) || defined(SC95F7x3x) || defined (SC95F
             -8x6x) || defined (SC95F7x6x)\
  30      =1                  || defined (SC95F8x1xB) || defined (SC95F7x1xB)  || defined (SC95R751) || defined (SC95F7610B) || define
             -d (SC95F7619B) || defined(SC95FS52x)\
  31      =1                  || defined (SC95R602)  || defined (SC95R605) || defined(SC95F8x7x) || defined(SC95F7x7x)|| defined(SC95R
             -503)
  32      =1  typedef enum
  33      =1  {
  34      =1    TIM4_MODE_TIMER = ((uint8_t)0x01),  
  35      =1    TIM4_MODE_COUNTER = ((uint8_t)0x02) 
  36      =1  } TIM4_CountMode_TypeDef;
  37      =1  
  38      =1  typedef enum
  39      =1  {
  40      =1    TIM4_COUNTDIRECTION_UP = ((uint8_t)0x00),     
  41      =1    TIM4_COUNTDIRECTION_DOWN_UP = ((uint8_t)0x10) 
  42      =1  } TIM4_CountDirection_TypeDef;
  43      =1  
  44      =1  typedef enum
  45      =1  {
  46      =1    TIM4_FLAG_TF4 = (uint8_t)0x80, 
  47      =1    TIM4_FLAG_EXF4 = (uint8_t)0x40 
  48      =1  } TIM4_Flag_TypeDef;
  49      =1  
  50      =1  typedef enum
  51      =1  {
  52      =1    TIM4_WORK_MODE0 = ((uint8_t)0x00), 
  53      =1    TIM4_WORK_MODE1 = ((uint8_t)0x01), 
  54      =1    TIM4_WORK_MODE3 = ((uint8_t)0x03), 
  55      =1  } TIM4_WorkMode_TypeDef;
  56      =1  #endif
  57      =1  
  58      =1  void TIM4_DeInit();
  59      =1  void TIM4_PrescalerSelection(TIM4_PresSel_TypeDef TIM4_PrescalerSelection);
  60      =1  void TIM4_WorkMode1Config(uint16_t TIM4_SetCounter);
  61      =1  void TIM4_Cmd(FunctionalState NewState);
  62      =1  void TIM4_ITConfig(FunctionalState NewState, PriorityStatus Priority);
  63      =1  FlagStatus TIM4_GetFlagStatus(TIM4_Flag_TypeDef TIM4_Flag);
  64      =1  void TIM4_ClearFlag(TIM4_Flag_TypeDef TIM4_Flag);
  65      =1  
  66      =1  #if defined(SC95F8x2x) || defined(SC95F7x2x) || defined(SC95F8x3x) || defined(SC95F7x3x) || defined (SC95F
             -8x6x) || defined (SC95F7x6x)\
  67      =1                  || defined (SC95F8x1xB) || defined (SC95F7x1xB) || defined (SC95R751) || defined (SC95F7610B) || defined
             - (SC95F7619B) || defined(SC95FS52x)\
  68      =1                  || defined (SC95R602)  || defined (SC95R605) || defined(SC95F8x7x) || defined(SC95F7x7x)|| defined(SC95R
             -503)
  69      =1  void TIM4_TimeBaseInit(TIM4_CountMode_TypeDef TIM4_CountMode,
  70      =1                         TIM4_CountDirection_TypeDef TIM4_CountDirection);
  71      =1  void TIM4_WorkMode0Config(uint16_t TIM4_SetCounter);
  72      =1  void TIM4_WorkMode3Config(uint16_t TIM4_SetCounter);
  73      =1  void TIM4_WorkModeConfig(TIM4_WorkMode_TypeDef TIM4_WorkMode, uint16_t TIM4_SetCounter);
  74      =1  void TIM4_SetEXEN4(FunctionalState NewState);
  75      =1  #endif
  76      =1  
  77      =1  #endif
  16          
  17          #if defined(SC95F8x1x) || defined(SC95F7x1x)
 422          
 423          #if defined(SC95F8x2x) || defined(SC95F7x2x) || defined(SC95FS52x)
 830          
 831          #if defined(SC95FWxx)
1326          
1327          #if defined(SC95F8x3x) || defined(SC95F7x3x) || defined (SC95F8x6x) || defined (SC95F7x6x)  || defined (SC
             -95F8x1xB) || defined (SC95F7x1xB)\
1328                          || defined (SC95R751) || defined (SC95F7610B) || defined (SC95F7619B) || defined (SC95R602)  || defined 
             -(SC95R605)\
1329              || defined (SC95F8x7x) || defined (SC95F7x7x)|| defined(SC95R503)
1330          
1331          #if !defined(SC95F8x7x) && !defined (SC95F7x7x)|| defined(SC95R503)
1332              uint16_t xdata PWMREG[14] _at_ 0x2034; 
1333          #else
1336          
1342          void PWM_DeInit(void)
1343          {
1344   1        uint8_t i;
1345   1        
1346   1        PWMCON0 = 0X00;
1347   1        PWMCFG = 0X00;
1348   1        PWMCON1 = 0X00;
1349   1        PWMPDL = 0x00;
1350   1        PWMPDH = 0x00;
1351   1        IE1 &= 0XFD;
1352   1        IP1 &= 0XFD;
1353   1      
1354   1        
1355   1        for(i = 0; i < 8; i++)
1356   1        {
1357   2          *(&PWMREG[6] + i) = 0;
1358   2        }
1359   1      }
1360          
1361          
1368          void PWM_DeInitEX(PWM_Type_TypeDef PWM_Type)
1369          {
1370   1        
1371   1        if(PWM_Type == PWM0_Type)
1372   1        {
1373   2          uint8_t i;
1374   2      
1375   2          
1376   2          PWMCON0 = 0X00;
1377   2          PWMCFG = 0X00;
1378   2          PWMCON1 = 0X00;
1379   2          PWMPDL = 0x00;
1380   2          PWMPDH = 0x00;
1381   2          IE1 &= 0XFD;
1382   2          IP1 &= 0XFD;
1383   2      
1384   2          
1385   2          for(i = 0; i < 8; i++)
1386   2          {
1387   3            *(&PWMREG[6] + i) = 0;
1388   3          }
1389   2        }
1390   1        else 
1391   1        {
1392   2          TXINX = PWM_Type;
1393   2          TXCON &= ~0x04;
1394   2          TXMOD &= ~0x3C;
1395   2      
1396   2          switch(PWM_Type)
1397   2          {
1398   3      #if !defined(SC95R751)
1399   3            case PWM2_Type:
1400   3              ET2 = 0;
1401   3              IP &= ~0x20;
1402   3              (uint32_t)PWMREG[0] = 0;
1403   3              break;
1404   3      #endif
1405   3            case PWM3_Type:
1406   3              IE1 &= ~0x40;
1407   3              IP1 &= ~0x40;
1408   3              (uint32_t)PWMREG[2] = 0;
1409   3              break;
1410   3      #if !defined(SC95F7610B) && !defined(SC95F7619B) && !defined(SC95R751)
1411   3            case PWM4_Type:
1412   3              IE1 &= ~0x80;
1413   3              IP1 &= ~0x80;
1414   3              (uint32_t)PWMREG[4] = 0;
1415   3              break;
1416   3      #endif
1417   3            default:
1418   3              break;
1419   3          }
1420   2        }
1421   1      }
1422          
1423          
1431          void PWM_Init(PWM_PresSel_TypeDef PWM_PresSel, uint16_t PWM_Period)
1432          {
1433   1        if((PWM_PresSel & 0X0F) == PWM0_Type)
1434   1        {
1435   2          PWM_Period -= 1;
1436   2          PWMCON0 = (PWMCON0 & 0XCF) | (PWM_PresSel & 0XF0); 
1437   2          PWMPDH = (uint8_t)(PWM_Period >> 8);               
1438   2          PWMPDL = (uint8_t)(PWM_Period & 0X00FF);           
1439   2        }
1440   1        else
1441   1        {
1442   2          TXINX = (PWM_PresSel & 0X0F);                                                       
1443   2          PWM_PresSel = DISABLE;                                                                              
1444   2          RCAPXH = (uint8_t)(PWM_Period >> 8);                        
1445   2          RCAPXL = (uint8_t)(PWM_Period & 0X00FF);            
1446   2        }
1447   1      }
1448          
1449          
1456          void PWM_Aligned_Mode_Select(PWM_Aligned_Mode_TypeDef PWM_Aligned_Mode)
1457          {
1458   1      
1459   1        
1460   1        if(PWM_Aligned_Mode == PWM0_Edge_Aligned_Mode)
1461   1        {
1462   2          PWMCON0 &= 0XFE;
1463   2        }
1464   1        else if(PWM_Aligned_Mode == PWM0_Center_Alignment_Mode)
1465   1        {
1466   2          PWMCON0 |= 0X01;
1467   2        }
1468   1      }
1469          
1470          
1478          void PWM_OutputStateConfig(PWM_OutputPin_TypeDef PWM_OutputPin,
1479                                     PWM_OutputState_TypeDef PWM_OutputState)
1480          {
1481   1        unsigned char Reg_Data;
1482   1        if((PWM_OutputPin & 0xF0) == 0x00)
1483   1        {
1484   2          if(PWM_OutputState == PWM_OUTPUTSTATE_ENABLE)
1485   2          {
1486   3            PWMCON1 |= 1 << (PWM_OutputPin & 0x0F);
1487   3          }
1488   2          else
1489   2          {
1490   3            PWMCON1 &= ~(1 << (PWM_OutputPin & 0x0F));
1491   3          }
1492   2        }
1493   1        else
1494   1        {
1495   2          TXINX = (PWM_OutputPin & 0xF0) >> 4;
1496   2      
1497   2          if(PWM_OutputPin & 0x01)
1498   2          {
1499   3            Reg_Data = 0x20;
1500   3          }
1501   2          else
1502   2          {
1503   3            Reg_Data = 0x10;
1504   3          }
1505   2      
1506   2          if(PWM_OutputState == PWM_OUTPUTSTATE_ENABLE)
1507   2          {
1508   3            TXMOD |= Reg_Data;
1509   3          }
1510   2          else
1511   2          {
1512   3            TXMOD &= ~Reg_Data;
1513   3          }
1514   2        }
1515   1      }
1516          
1517          
1525          void PWM_PolarityConfig(PWM_OutputPin_TypeDef PWM_OutputPin,
1526                                  PWM_Polarity_TypeDef PWM_Polarity)
1527          {
1528   1        unsigned char Reg_Data;
1529   1        if((PWM_OutputPin & 0xF0) == 0x00)
1530   1        {
1531   2          if(PWM_Polarity == PWM_POLARITY_INVERT)
1532   2          {
1533   3            PWMCFG |= 1 << (PWM_OutputPin & 0x0F);
1534   3          }
1535   2          else
1536   2          {
1537   3            PWMCFG &= ~(1 << (PWM_OutputPin & 0x0F));
1538   3          }
1539   2        }
1540   1        else
1541   1        {
1542   2          TXINX = (PWM_OutputPin & 0xF0) >> 4;
1543   2      
1544   2          if(PWM_OutputPin & 0x01)
1545   2          {
1546   3            Reg_Data = 0x08;
1547   3          }
1548   2          else
1549   2          {
1550   3            Reg_Data = 0x04;
1551   3          }
1552   2      
1553   2          if(PWM_Polarity == PWM_POLARITY_INVERT)
1554   2          {
1555   3            TXMOD |= Reg_Data;
1556   3          }
1557   2          else
1558   2          {
1559   3            TXMOD &= ~Reg_Data;
1560   3          }
1561   2        }
1562   1      }
1563          
1564          
1572          void PWM_IndependentModeConfig(PWM_OutputPin_TypeDef PWM_OutputPin, uint16_t PWM_DutyCycle)
1573          {
1574   1        if((PWM_OutputPin & 0xF0) == 0x00)
1575   1        {
1576   2          PWMCON0 &= ~0x02;                           
1577   2          PWMREG[6 + PWM_OutputPin] = PWM_DutyCycle;
1578   2        }
1579   1        else
1580   1        {
1581   2          PWMREG[PWM_OutputPin & 0x0F] = PWM_DutyCycle;
1582   2        }
1583   1      }
1584          
1585          
1593          void PWM_ComplementaryModeConfig(PWM_ComplementaryOutputPin_TypeDef PWM_ComplementaryOutputPin,
1594                                           uint16_t PWM_DutyCycle)
1595          {
1596   1        PWMCON0 |= 0x02;                              
1597   1        PWMREG[6 + PWM_ComplementaryOutputPin] = PWM_DutyCycle;
1598   1      }
1599          
1600          
1608          void PWM_DeadTimeConfig(uint8_t PWM_RisingDeadTime, uint8_t PWM_FallingDeadTime)
1609          {
1610   1        PWMDFR = (PWM_RisingDeadTime | (PWM_FallingDeadTime << 4));
1611   1      }
1612          
1613          
1622          void PWM_DeadTimeConfigEX(PWM_Type_TypeDef PWM_Type, uint8_t PWM_RisingDeadTime, uint8_t PWM_FallingDeadTi
             -me)
1623          {
1624   1        if(PWM_Type == PWM0_Type)
1625   1        {
1626   2          PWMDFR = (PWM_RisingDeadTime | (PWM_FallingDeadTime << 4));
1627   2        }
1628   1      }
1629          
1630          
1637          void PWM_Cmd(FunctionalState NewState)
1638          {
1639   1        if(NewState != DISABLE)
1640   1        {
1641   2          PWMCON0 |= 0X80;
1642   2        }
1643   1        else
1644   1        {
1645   2          PWMCON0 &= 0X7F;
1646   2        }
1647   1      }
1648          
1649          
1657          void PWM_CmdEX(PWM_Type_TypeDef PWM_Type,
1658                         FunctionalState NewState)
1659          {
1660   1        if(PWM_Type == PWM0_Type)
1661   1        {
1662   2          if(NewState != DISABLE)
1663   2          {
1664   3            PWMCON0 |= 0X80;
1665   3          }
1666   2          else
1667   2          {
1668   3            PWMCON0 &= 0X7F;
1669   3          }
1670   2        }
1671   1        else
1672   1        {
1673   2          TXINX = PWM_Type;
1674   2          if(NewState != DISABLE)
1675   2          {
1676   3            TXCON |= 0X04;
1677   3          }
1678   2          else
1679   2          {
1680   3            TXCON &= ~0X04;
1681   3          }
1682   2        }
1683   1      }
1684          
1685          
1693          void PWM_ITConfig(FunctionalState NewState,
1694                            PriorityStatus Priority)
1695          {
1696   1        if(NewState != DISABLE)
1697   1        {
1698   2          IE1 |= 0X02;
1699   2        }
1700   1        else
1701   1        {
1702   2          IE1 &= 0XFD;
1703   2        }
1704   1      
1705   1        if(Priority == LOW)
1706   1        {
1707   2          IP1 &= ~0X02;
1708   2        }
1709   1        else
1710   1        {
1711   2          IP1 |= 0X02;
1712   2        }
1713   1      }
1714          
1715          
1716          
1725          void PWM_ITConfigEX(PWM_Type_TypeDef PWM_Type, FunctionalState NewState, PriorityStatus Priority)
1726          {
1727   1        switch(PWM_Type)
1728   1        {
1729   2          case PWM0_Type:
1730   2            PWM_ITConfig(NewState, Priority);
1731   2            break;
1732   2      #if !defined(SC95R751)
1733   2          case PWM2_Type:
1734   2          {
1735   3            if(NewState == DISABLE)
1736   3              ET2 = 0;
1737   3            else
1738   3              ET2 = 1;
1739   3      
1740   3            if(Priority == LOW)
1741   3              IPT2 = 0;
1742   3            else
1743   3              IPT2 = 1;
1744   3          }
1745   2          break;
1746   2      #endif
1747   2          case PWM3_Type:
1748   2          {
1749   3            if(NewState == DISABLE)
1750   3              IE1 &= 0XBF;
1751   3            else
1752   3              IE1 |= 0X40;
1753   3      
1754   3            if(Priority == LOW)
1755   3              IP1 &= 0XBF;
1756   3            else
1757   3              IP1 |= 0X40;
1758   3          }
1759   2          break;
1760   2      #if !defined(SC95F7610B)  && !defined(SC95F7619B) && !defined(SC95R751)
1761   2          case PWM4_Type:
1762   2          {
1763   3            if(NewState == DISABLE)
1764   3              IE1 &= 0X7F;
1765   3            else
1766   3              IE1 |= 0X80;
1767   3      
1768   3            if(Priority == LOW)
1769   3              IP1 &= 0X7F;
1770   3            else
1771   3              IP1 |= 0X80;
1772   3          }
1773   2          break;
1774   2      #endif
1775   2          default:
1776   2            break;
1777   2        }
1778   1      }
1779          
1780          
1789          void PWM_IndependentModeConfigEX(PWM_OutputPin_TypeDef PWM_ComplementaryOutputPin,
1790                                           uint16_t PWM_DutyCycle,
1791                                           PWM_OutputState_TypeDef PWM_OutputState)
1792          {
1793   1        PWM_IndependentModeConfig(PWM_ComplementaryOutputPin, PWM_DutyCycle); 
1794   1        PWM_OutputStateConfig(PWM_ComplementaryOutputPin, PWM_OutputState);   
1795   1        if(PWM_OutputState == ENABLE)
1796   1        {
1797   2          PWM_CmdEX(PWM_ComplementaryOutputPin >> 4, ENABLE); 
1798   2        }
1799   1      }
1800          
1801          
1810          void PWM_ComplementaryModeConfigEX(PWM_ComplementaryOutputPin_TypeDef PWM_OutputPin,
1811                                             uint16_t PWM_DutyCycle,
1812                                             PWM_OutputState_TypeDef PWM_OutputState)
1813          {
1814   1        PWM_ComplementaryModeConfig(PWM_OutputPin, PWM_DutyCycle); 
1815   1        PWM_OutputStateConfig(PWM_OutputPin, PWM_OutputState);     
1816   1        PWM_OutputStateConfig(PWM_OutputPin + 2, PWM_OutputState); 
1817   1        if(PWM_OutputState == ENABLE)
1818   1        {
1819   2          PWM_CmdEX(PWM_OutputPin >> 4, ENABLE); 
1820   2        }
1821   1      }
1822          
1823          
1830          FlagStatus PWM_GetFlagStatus(void)
1831          {
1832   1        return (bool)(PWMCON0 & 0X40);
1833   1      }
1834          
1835          
1843          FlagStatus PWM_GetFlagStatusEX(PWM_Type_TypeDef PWM_Type)
1844          {
1845   1        if((PWM_Type == PWM0_Type))
1846   1        {
1847   2          return (bool)(PWMCON0 & 0X40);
1848   2        }
1849   1      #if defined (SC95R751)
1862   1        else if((PWM_Type == PWM2_Type) || (PWM_Type == PWM3_Type) || (PWM_Type == PWM0_Type))
1863   1        {
1864   2          TXINX = PWM_Type;
1865   2          return (bool)(TXCON & 0x80);
1866   2        }
1867   1      #endif
1868   1      
1869   1        return RESET;
1870   1      }
1871          
1872          
1879          void PWM_ClearFlagEX(PWM_Type_TypeDef PWM_Type)
1880          {
1881   1        if((PWM_Type == PWM0_Type))
1882   1        {
1883   2          PWMCON0 &= ~0X40;
1884   2        }
1885   1      
1886   1      #if  defined (SC95R751)
1899   1        else if((PWM_Type == PWM2_Type) || (PWM_Type == PWM3_Type) || (PWM_Type == PWM0_Type))
1900   1        {
1901   2          TXINX = PWM_Type;
1902   2          TXCON &= ~0x80;
1903   2        }
1904   1      #endif
1905   1      }
1906          
1907          #if !defined (SC95F7610B) && !defined (SC95F7619B)
1908          
1916          FlagStatus PWM_GetFaultDetectionFlagStatusEX(PWM_Type_TypeDef PWM_Type)
1917          {
1918   1        if(PWM_Type == PWM0_Type)
1919   1        {
1920   2          return (bool)(PWMFLT & 0X40);
1921   2        }
1922   1        return RESET;
1923   1      }
1924          
1925          
1932          void PWM_ClearFaultDetectionFlag(void)
1933          {
1934   1        PWMFLT &= 0XBF;
1935   1      }
1936          
1937          
1944          void PWM_ClearFaultDetectionFlagEX(PWM_Type_TypeDef PWM_Type)
1945          {
1946   1        if(PWM_Type == PWM0_Type)
1947   1        {
1948   2          PWMFLT &= 0XBF;
1949   2        }
1950   1      }
1951          
1952          
1959          void PWM_FaultDetectionConfig(FunctionalState NewState)
1960          {
1961   1        if(NewState != DISABLE)
1962   1        {
1963   2          PWMFLT |= 0X80;
1964   2        }
1965   1        else
1966   1        {
1967   2          PWMFLT &= 0X7F;
1968   2        }
1969   1      }
1970          
1971          
1979          void PWM_FaultDetectionConfigEX(PWM_Type_TypeDef PWM_Type, FunctionalState NewState)
1980          {
1981   1        if(PWM_Type == PWM0_Type)
1982   1        {
1983   2          if(NewState != DISABLE)
1984   2          {
1985   3            PWMFLT |= 0X80;
1986   3          }
1987   2          else
1988   2          {
1989   3            PWMFLT &= 0X7F;
1990   3          }
1991   2        }
1992   1      }
1993          
1994          
2005          void PWM_FaultDetectionModeConfig(PWM_FaultDetectionMode_TypeDef FaultDetectionMode,
2006                                            PWM_FaultDetectionVoltageSelect_TypeDef FaultDetectionVoltageSelect,
2007                                            PWM_FaultDetectionWaveFilteringTime_TypeDef FaultDetectionWaveFilteringT
             -ime)
2008          {
2009   1        PWMFLT = (PWMFLT & 0XC0) | FaultDetectionMode | FaultDetectionVoltageSelect |
2010   1                 FaultDetectionWaveFilteringTime;
2011   1      }
2012          
2013          
2023          void PWM_FaultDetectionModeConfigEX(PWM_Type_TypeDef PWM_Type,
2024                                              PWM_FaultDetectionMode_TypeDef FaultDetectionMode,
2025                                              PWM_FaultDetectionVoltageSelect_TypeDef FaultDetectionVoltageSelect,
2026                                              PWM_FaultDetectionWaveFilteringTime_TypeDef FaultDetectionWaveFilterin
             -gTime)
2027          {
2028   1        if(PWM_Type == PWM0_Type)
2029   1        {
2030   2          PWMFLT = (PWMFLT & 0XC0) | FaultDetectionMode | FaultDetectionVoltageSelect |
2031   2                   FaultDetectionWaveFilteringTime;
2032   2        }
2033   1      }
2034          #endif
2035          
2036          
2047          ErrorStatus PWM_IndependentMode_DutyChange(PWM_OutputPin_TypeDef PWM_OutputPin,
2048              PWM_DutyChange_TypeDef Change_Direction, uint16_t DutyIncremental)
2049          {
2050   1        uint16_t tmpRegValue;
2051   1        uint16_t tmpRegAdress;
2052   1        uint16_t tmpPolarity = PWMPDL + (PWMPDH << 8);
2053   1      
2054   1        
2055   1        if((PWM_OutputPin & 0xF0) == 0x00)
2056   1        {
2057   2          PWMCON0 &= ~0x02;                   
2058   2          tmpRegAdress = PWMREG + 6 + PWM_OutputPin;
2059   2        }
2060   1        else          
2061   1        {
2062   2          tmpRegAdress = PWMREG + (PWM_OutputPin & 0x0F);
2063   2        }
2064   1      
2065   1        tmpRegValue = *((uint16_t xdata*)tmpRegAdress);
2066   1        if(Change_Direction == PWM_DutyChange_Up)
2067   1        {
2068   2          tmpRegValue += DutyIncremental;                             
2069   2        }
2070   1        else
2071   1        {
2072   2          tmpRegValue -= DutyIncremental;                             
2073   2        }
2074   1        
2075   1        if(tmpRegValue > tmpPolarity)
2076   1          return ERROR;
2077   1        *((uint16_t xdata*)tmpRegAdress) = tmpRegValue;               
2078   1        return SUCCESS;
2079   1      }
2080          
2081          
2091          ErrorStatus PWM_ComplementaryMode_DutyChange(PWM_ComplementaryOutputPin_TypeDef PWM_ComplementaryOutputPin
             -,
2092              PWM_DutyChange_TypeDef Change_Direction, uint16_t DutyIncremental)
2093          {
2094   1        uint16_t tmpRegValue;
2095   1        uint16_t tmpRegAdress;
2096   1        uint16_t tmpPolarity = PWMPDL + (PWMPDH << 8);
2097   1        
2098   1        if((PWM_ComplementaryOutputPin & 0xF0) == 0x00)
2099   1        {
2100   2          tmpRegAdress = PWMREG + 6 + PWM_ComplementaryOutputPin;
2101   2        }
2102   1        else  
2103   1        {
2104   2          tmpRegAdress = PWMREG + (PWM_ComplementaryOutputPin & 0x0F);
2105   2        }
2106   1      
2107   1        tmpRegValue = *(uint16_t xdata*)tmpRegAdress;
2108   1        if(Change_Direction == PWM_DutyChange_Up)
2109   1        {
2110   2          tmpRegValue += DutyIncremental;                             
2111   2        }
2112   1        else
2113   1        {
2114   2          tmpRegValue -= DutyIncremental;                             
2115   2        }
2116   1        
2117   1        if(tmpRegValue > tmpPolarity)
2118   1          return ERROR;
2119   1        *((uint16_t xdata*)tmpRegAdress) = tmpRegValue;               
2120   1        return SUCCESS;
2121   1      }
2122          
2123          #endif
2124          
ASSEMBLY LISTING OF GENERATED OBJECT CODE
             ; FUNCTION PWM_DeInit (BEGIN)
                                           ; SOURCE LINE # 1342
                                           ; SOURCE LINE # 1343
                                           ; SOURCE LINE # 1346
0000 E4                CLR     A
0001 F5D2              MOV     PWMCON0,A
                                           ; SOURCE LINE # 1347
0003 F5D1              MOV     PWMCFG,A
                                           ; SOURCE LINE # 1348
0005 F5D3              MOV     PWMCON1,A
                                           ; SOURCE LINE # 1349
0007 F5D4              MOV     PWMPDL,A
                                           ; SOURCE LINE # 1350
0009 F5D5              MOV     PWMPDH,A
                                           ; SOURCE LINE # 1351
000B 53A9FD            ANL     IE1,#0FDH
                                           ; SOURCE LINE # 1352
000E 53B9FD            ANL     IP1,#0FDH
                                           ; SOURCE LINE # 1355
;---- Variable 'i' assigned to Register 'R7' ----
0011 FF                MOV     R7,A
0012         ?C0001:
0012 EF                MOV     A,R7
0013 C3                CLR     C
0014 9408              SUBB    A,#08H
0016 7480              MOV     A,#080H
0018 9480              SUBB    A,#080H
001A 5019              JNC     ?C0004
                                           ; SOURCE LINE # 1356
                                           ; SOURCE LINE # 1357
001C 7B01              MOV     R3,#01H
001E 7A00        R     MOV     R2,#HIGH PWMREG+0CH
0020 7900        R     MOV     R1,#LOW PWMREG+0CH
0022 75F002            MOV     B,#02H
0025 EF                MOV     A,R7
0026 A4                MUL     AB
0027 F582              MOV     DPL,A
0029 85F083            MOV     DPH,B
002C E4                CLR     A
002D F5F0              MOV     B,A
002F 120000      E     LCALL   ?C?ISTOPTR
                                           ; SOURCE LINE # 1358
0032 0F                INC     R7
0033 80DD              SJMP    ?C0001
                                           ; SOURCE LINE # 1359
0035         ?C0004:
0035 22                RET     
             ; FUNCTION PWM_DeInit (END)
             ; FUNCTION _PWM_DeInitEX (BEGIN)
                                           ; SOURCE LINE # 1368
;---- Variable 'PWM_Type' assigned to Register 'R7' ----
                                           ; SOURCE LINE # 1369
                                           ; SOURCE LINE # 1371
0000 EF                MOV     A,R7
0001 7040              JNZ     ?C0005
                                           ; SOURCE LINE # 1372
                                           ; SOURCE LINE # 1376
0003 F5D2              MOV     PWMCON0,A
                                           ; SOURCE LINE # 1377
0005 F5D1              MOV     PWMCFG,A
                                           ; SOURCE LINE # 1378
0007 F5D3              MOV     PWMCON1,A
                                           ; SOURCE LINE # 1379
0009 F5D4              MOV     PWMPDL,A
                                           ; SOURCE LINE # 1380
000B F5D5              MOV     PWMPDH,A
                                           ; SOURCE LINE # 1381
000D 53A9FD            ANL     IE1,#0FDH
                                           ; SOURCE LINE # 1382
0010 53B9FD            ANL     IP1,#0FDH
                                           ; SOURCE LINE # 1385
0013 900000      R     MOV     DPTR,#i
0016 F0                MOVX    @DPTR,A
0017         ?C0006:
0017 900000      R     MOV     DPTR,#i
001A E0                MOVX    A,@DPTR
001B FE                MOV     R6,A
001C C3                CLR     C
001D 9408              SUBB    A,#08H
001F 7480              MOV     A,#080H
0021 9480              SUBB    A,#080H
0023 505D              JNC     ?C0015
                                           ; SOURCE LINE # 1386
                                           ; SOURCE LINE # 1387
0025 7B01              MOV     R3,#01H
0027 7A00        R     MOV     R2,#HIGH PWMREG+0CH
0029 7900        R     MOV     R1,#LOW PWMREG+0CH
002B 75F002            MOV     B,#02H
002E EE                MOV     A,R6
002F A4                MUL     AB
0030 F582              MOV     DPL,A
0032 85F083            MOV     DPH,B
0035 E4                CLR     A
0036 F5F0              MOV     B,A
0038 120000      E     LCALL   ?C?ISTOPTR
                                           ; SOURCE LINE # 1388
003B 900000      R     MOV     DPTR,#i
003E E0                MOVX    A,@DPTR
003F 04                INC     A
0040 F0                MOVX    @DPTR,A
0041 80D4              SJMP    ?C0006
                                           ; SOURCE LINE # 1389
0043         ?C0005:
                                           ; SOURCE LINE # 1391
                                           ; SOURCE LINE # 1392
0043 8FCE              MOV     TXINX,R7
                                           ; SOURCE LINE # 1393
0045 53C8FB            ANL     TXCON,#0FBH
                                           ; SOURCE LINE # 1394
0048 53C9C3            ANL     TXMOD,#0C3H
                                           ; SOURCE LINE # 1396
004B EF                MOV     A,R7
004C 24FD              ADD     A,#0FDH
004E 6011              JZ      ?C0012
0050 14                DEC     A
0051 601F              JZ      ?C0013
0053 2402              ADD     A,#02H
0055 702B              JNZ     ?C0015
                                           ; SOURCE LINE # 1397
                                           ; SOURCE LINE # 1399
0057         ?C0011:
                                           ; SOURCE LINE # 1400
0057 C2AD              CLR     ET2
                                           ; SOURCE LINE # 1401
0059 53B8DF            ANL     IP,#0DFH
                                           ; SOURCE LINE # 1402
005C 900000      R     MOV     DPTR,#PWMREG
                                           ; SOURCE LINE # 1403
005F 8009              SJMP    ?C0133
                                           ; SOURCE LINE # 1405
0061         ?C0012:
                                           ; SOURCE LINE # 1406
0061 53A9BF            ANL     IE1,#0BFH
                                           ; SOURCE LINE # 1407
0064 53B9BF            ANL     IP1,#0BFH
                                           ; SOURCE LINE # 1408
0067 900000      R     MOV     DPTR,#PWMREG+04H
006A         ?C0133:
006A 120000      E     LCALL   ?C?LSTKXDATA
006D 00                DB      00H
006E 00                DB      00H
006F 00                DB      00H
0070 00                DB      00H
                                           ; SOURCE LINE # 1409
0071 22                RET     
                                           ; SOURCE LINE # 1411
0072         ?C0013:
                                           ; SOURCE LINE # 1412
0072 53A97F            ANL     IE1,#07FH
                                           ; SOURCE LINE # 1413
0075 53B97F            ANL     IP1,#07FH
                                           ; SOURCE LINE # 1414
0078 900000      R     MOV     DPTR,#PWMREG+08H
007B 120000      E     LCALL   ?C?LSTKXDATA
007E 00                DB      00H
007F 00                DB      00H
0080 00                DB      00H
0081 00                DB      00H
                                           ; SOURCE LINE # 1415
                                           ; SOURCE LINE # 1417
                                           ; SOURCE LINE # 1418
                                           ; SOURCE LINE # 1419
                                           ; SOURCE LINE # 1420
                                           ; SOURCE LINE # 1421
0082         ?C0015:
0082 22                RET     
             ; FUNCTION _PWM_DeInitEX (END)
             ; FUNCTION _PWM_Init (BEGIN)
                                           ; SOURCE LINE # 1431
;---- Variable 'PWM_Period' assigned to Register 'R4/R5' ----
;---- Variable 'PWM_PresSel' assigned to Register 'R3' ----
0000 AB07              MOV     R3,AR7
                                           ; SOURCE LINE # 1432
                                           ; SOURCE LINE # 1433
0002 EB                MOV     A,R3
0003 540F              ANL     A,#0FH
0005 FA                MOV     R2,A
0006 7019              JNZ     ?C0016
                                           ; SOURCE LINE # 1434
                                           ; SOURCE LINE # 1435
0008 ED                MOV     A,R5
0009 1D                DEC     R5
000A 7001              JNZ     ?C0124
000C 1C                DEC     R4
000D         ?C0124:
                                           ; SOURCE LINE # 1436
000D EB                MOV     A,R3
000E 54F0              ANL     A,#0F0H
0010 FF                MOV     R7,A
0011 E5D2              MOV     A,PWMCON0
0013 54CF              ANL     A,#0CFH
0015 4F                ORL     A,R7
0016 F5D2              MOV     PWMCON0,A
                                           ; SOURCE LINE # 1437
0018 EC                MOV     A,R4
0019 F5D5              MOV     PWMPDH,A
                                           ; SOURCE LINE # 1438
001B AF05              MOV     R7,AR5
001D EF                MOV     A,R7
001E F5D4              MOV     PWMPDL,A
                                           ; SOURCE LINE # 1439
0020 22                RET     
0021         ?C0016:
                                           ; SOURCE LINE # 1441
                                           ; SOURCE LINE # 1442
0021 8ACE              MOV     TXINX,R2
                                           ; SOURCE LINE # 1443
                                           ; SOURCE LINE # 1444
0023 EC                MOV     A,R4
0024 F5CB              MOV     RCAPXH,A
                                           ; SOURCE LINE # 1445
0026 ED                MOV     A,R5
0027 F5CA              MOV     RCAPXL,A
                                           ; SOURCE LINE # 1446
                                           ; SOURCE LINE # 1447
0029         ?C0018:
0029 22                RET     
             ; FUNCTION _PWM_Init (END)
             ; FUNCTION _PWM_Aligned_Mode_Select (BEGIN)
                                           ; SOURCE LINE # 1456
;---- Variable 'PWM_Aligned_Mode' assigned to Register 'R7' ----
                                           ; SOURCE LINE # 1457
                                           ; SOURCE LINE # 1460
0000 EF                MOV     A,R7
0001 FD                MOV     R5,A
0002 7C00              MOV     R4,#00H
0004 7004              JNZ     ?C0019
                                           ; SOURCE LINE # 1461
                                           ; SOURCE LINE # 1462
0006 53D2FE            ANL     PWMCON0,#0FEH
                                           ; SOURCE LINE # 1463
0009 22                RET     
000A         ?C0019:
                                           ; SOURCE LINE # 1464
000A ED                MOV     A,R5
000B 6401              XRL     A,#01H
000D 4C                ORL     A,R4
000E 7003              JNZ     ?C0022
                                           ; SOURCE LINE # 1465
                                           ; SOURCE LINE # 1466
0010 43D201            ORL     PWMCON0,#01H
                                           ; SOURCE LINE # 1467
                                           ; SOURCE LINE # 1468
0013         ?C0022:
0013 22                RET     
             ; FUNCTION _PWM_Aligned_Mode_Select (END)
             ; FUNCTION _PWM_OutputStateConfig (BEGIN)
                                           ; SOURCE LINE # 1478
;---- Variable 'Reg_Data' assigned to Register 'R6' ----
;---- Variable 'PWM_OutputPin' assigned to Register 'R7' ----
;---- Variable 'PWM_OutputState' assigned to Register 'R5' ----
                                           ; SOURCE LINE # 1480
                                           ; SOURCE LINE # 1482
0000 EF                MOV     A,R7
0001 54F0              ANL     A,#0F0H
0003 FC                MOV     R4,A
0004 7028              JNZ     ?C0023
                                           ; SOURCE LINE # 1483
                                           ; SOURCE LINE # 1484
0006 ED                MOV     A,R5
0007 6401              XRL     A,#01H
0009 7011              JNZ     ?C0024
                                           ; SOURCE LINE # 1485
                                           ; SOURCE LINE # 1486
000B EF                MOV     A,R7
000C 540F              ANL     A,#0FH
000E FF                MOV     R7,A
000F F8                MOV     R0,A
0010 7401              MOV     A,#01H
0012 08                INC     R0
0013 8002              SJMP    ?C0126
0015         ?C0125:
0015 C3                CLR     C
0016 33                RLC     A
0017         ?C0126:
0017 D8FC              DJNZ    R0,?C0125
0019 42D3              ORL     PWMCON1,A
                                           ; SOURCE LINE # 1487
001B 22                RET     
001C         ?C0024:
                                           ; SOURCE LINE # 1489
                                           ; SOURCE LINE # 1490
001C EF                MOV     A,R7
001D 540F              ANL     A,#0FH
001F FF                MOV     R7,A
0020 F8                MOV     R0,A
0021 7401              MOV     A,#01H
0023 08                INC     R0
0024 8002              SJMP    ?C0128
0026         ?C0127:
0026 C3                CLR     C
0027 33                RLC     A
0028         ?C0128:
0028 D8FC              DJNZ    R0,?C0127
002A F4                CPL     A
002B 52D3              ANL     PWMCON1,A
                                           ; SOURCE LINE # 1491
                                           ; SOURCE LINE # 1492
002D 22                RET     
002E         ?C0023:
                                           ; SOURCE LINE # 1494
                                           ; SOURCE LINE # 1495
002E EC                MOV     A,R4
002F C4                SWAP    A
0030 540F              ANL     A,#0FH
0032 F5CE              MOV     TXINX,A
                                           ; SOURCE LINE # 1497
0034 EF                MOV     A,R7
0035 7E10              MOV     R6,#010H
0037 30E002            JNB     ACC.0,?C0027
                                           ; SOURCE LINE # 1498
                                           ; SOURCE LINE # 1499
003A 7E20              MOV     R6,#020H
                                           ; SOURCE LINE # 1500
003C         ?C0027:
                                           ; SOURCE LINE # 1502
                                           ; SOURCE LINE # 1503
                                           ; SOURCE LINE # 1504
003C         ?C0028:
                                           ; SOURCE LINE # 1506
003C ED                MOV     A,R5
003D 6401              XRL     A,#01H
003F 7004              JNZ     ?C0029
                                           ; SOURCE LINE # 1507
                                           ; SOURCE LINE # 1508
0041 EE                MOV     A,R6
0042 42C9              ORL     TXMOD,A
                                           ; SOURCE LINE # 1509
0044 22                RET     
0045         ?C0029:
                                           ; SOURCE LINE # 1511
                                           ; SOURCE LINE # 1512
0045 EE                MOV     A,R6
0046 F4                CPL     A
0047 52C9              ANL     TXMOD,A
                                           ; SOURCE LINE # 1513
                                           ; SOURCE LINE # 1514
                                           ; SOURCE LINE # 1515
0049         ?C0031:
0049 22                RET     
             ; FUNCTION _PWM_OutputStateConfig (END)
             ; FUNCTION _PWM_PolarityConfig (BEGIN)
                                           ; SOURCE LINE # 1525
;---- Variable 'Reg_Data' assigned to Register 'R6' ----
;---- Variable 'PWM_OutputPin' assigned to Register 'R7' ----
;---- Variable 'PWM_Polarity' assigned to Register 'R5' ----
                                           ; SOURCE LINE # 1527
                                           ; SOURCE LINE # 1529
0000 EF                MOV     A,R7
0001 54F0              ANL     A,#0F0H
0003 FC                MOV     R4,A
0004 7028              JNZ     ?C0032
                                           ; SOURCE LINE # 1530
                                           ; SOURCE LINE # 1531
0006 ED                MOV     A,R5
0007 6401              XRL     A,#01H
0009 7011              JNZ     ?C0033
                                           ; SOURCE LINE # 1532
                                           ; SOURCE LINE # 1533
000B EF                MOV     A,R7
000C 540F              ANL     A,#0FH
000E FF                MOV     R7,A
000F F8                MOV     R0,A
0010 7401              MOV     A,#01H
0012 08                INC     R0
0013 8002              SJMP    ?C0130
0015         ?C0129:
0015 C3                CLR     C
0016 33                RLC     A
0017         ?C0130:
0017 D8FC              DJNZ    R0,?C0129
0019 42D1              ORL     PWMCFG,A
                                           ; SOURCE LINE # 1534
001B 22                RET     
001C         ?C0033:
                                           ; SOURCE LINE # 1536
                                           ; SOURCE LINE # 1537
001C EF                MOV     A,R7
001D 540F              ANL     A,#0FH
001F FF                MOV     R7,A
0020 F8                MOV     R0,A
0021 7401              MOV     A,#01H
0023 08                INC     R0
0024 8002              SJMP    ?C0132
0026         ?C0131:
0026 C3                CLR     C
0027 33                RLC     A
0028         ?C0132:
0028 D8FC              DJNZ    R0,?C0131
002A F4                CPL     A
002B 52D1              ANL     PWMCFG,A
                                           ; SOURCE LINE # 1538
                                           ; SOURCE LINE # 1539
002D 22                RET     
002E         ?C0032:
                                           ; SOURCE LINE # 1541
                                           ; SOURCE LINE # 1542
002E EC                MOV     A,R4
002F C4                SWAP    A
0030 540F              ANL     A,#0FH
0032 F5CE              MOV     TXINX,A
                                           ; SOURCE LINE # 1544
0034 EF                MOV     A,R7
0035 7E04              MOV     R6,#04H
0037 30E002            JNB     ACC.0,?C0036
                                           ; SOURCE LINE # 1545
                                           ; SOURCE LINE # 1546
003A 7E08              MOV     R6,#08H
                                           ; SOURCE LINE # 1547
003C         ?C0036:
                                           ; SOURCE LINE # 1549
                                           ; SOURCE LINE # 1550
                                           ; SOURCE LINE # 1551
003C         ?C0037:
                                           ; SOURCE LINE # 1553
003C ED                MOV     A,R5
003D 6401              XRL     A,#01H
003F 7004              JNZ     ?C0038
                                           ; SOURCE LINE # 1554
                                           ; SOURCE LINE # 1555
0041 EE                MOV     A,R6
0042 42C9              ORL     TXMOD,A
                                           ; SOURCE LINE # 1556
0044 22                RET     
0045         ?C0038:
                                           ; SOURCE LINE # 1558
                                           ; SOURCE LINE # 1559
0045 EE                MOV     A,R6
0046 F4                CPL     A
0047 52C9              ANL     TXMOD,A
                                           ; SOURCE LINE # 1560
                                           ; SOURCE LINE # 1561
                                           ; SOURCE LINE # 1562
0049         ?C0040:
0049 22                RET     
             ; FUNCTION _PWM_PolarityConfig (END)
             ; FUNCTION _PWM_IndependentModeConfig (BEGIN)
                                           ; SOURCE LINE # 1572
0000 900000      R     MOV     DPTR,#PWM_DutyCycle
0003 EC                MOV     A,R4
0004 F0                MOVX    @DPTR,A
0005 A3                INC     DPTR
0006 ED                MOV     A,R5
0007 F0                MOVX    @DPTR,A
;---- Variable 'PWM_OutputPin' assigned to Register 'R7' ----
                                           ; SOURCE LINE # 1573
                                           ; SOURCE LINE # 1574
0008 EF                MOV     A,R7
0009 54F0              ANL     A,#0F0H
000B 7017              JNZ     ?C0041
                                           ; SOURCE LINE # 1575
                                           ; SOURCE LINE # 1576
000D 53D2FD            ANL     PWMCON0,#0FDH
                                           ; SOURCE LINE # 1577
0010 900000      R     MOV     DPTR,#PWM_DutyCycle
0013 E0                MOVX    A,@DPTR
0014 FC                MOV     R4,A
0015 A3                INC     DPTR
0016 E0                MOVX    A,@DPTR
0017 FD                MOV     R5,A
0018 EF                MOV     A,R7
0019 25E0              ADD     A,ACC
001B 2400        R     ADD     A,#LOW PWMREG+0CH
001D F582              MOV     DPL,A
001F E4                CLR     A
0020 3400        R     ADDC    A,#HIGH PWMREG+0CH
                                           ; SOURCE LINE # 1578
0022 8014              SJMP    ?C0134
0024         ?C0041:
                                           ; SOURCE LINE # 1580
                                           ; SOURCE LINE # 1581
0024 900000      R     MOV     DPTR,#PWM_DutyCycle
0027 E0                MOVX    A,@DPTR
0028 FC                MOV     R4,A
0029 A3                INC     DPTR
002A E0                MOVX    A,@DPTR
002B FD                MOV     R5,A
002C EF                MOV     A,R7
002D 540F              ANL     A,#0FH
002F 25E0              ADD     A,ACC
0031 2400        R     ADD     A,#LOW PWMREG
0033 F582              MOV     DPL,A
0035 E4                CLR     A
0036 3400        R     ADDC    A,#HIGH PWMREG
0038         ?C0134:
0038 F583              MOV     DPH,A
003A EC                MOV     A,R4
003B F0                MOVX    @DPTR,A
003C A3                INC     DPTR
003D ED                MOV     A,R5
003E F0                MOVX    @DPTR,A
                                           ; SOURCE LINE # 1582
                                           ; SOURCE LINE # 1583
003F         ?C0043:
003F 22                RET     
             ; FUNCTION _PWM_IndependentModeConfig (END)
             ; FUNCTION _PWM_ComplementaryModeConfig (BEGIN)
                                           ; SOURCE LINE # 1593
;---- Variable 'PWM_DutyCycle' assigned to Register 'R4/R5' ----
;---- Variable 'PWM_ComplementaryOutputPin' assigned to Register 'R7' ----
                                           ; SOURCE LINE # 1595
                                           ; SOURCE LINE # 1596
0000 43D202            ORL     PWMCON0,#02H
                                           ; SOURCE LINE # 1597
0003 EF                MOV     A,R7
0004 25E0              ADD     A,ACC
0006 2400        R     ADD     A,#LOW PWMREG+0CH
0008 F582              MOV     DPL,A
000A E4                CLR     A
000B 3400        R     ADDC    A,#HIGH PWMREG+0CH
000D F583              MOV     DPH,A
000F EC                MOV     A,R4
0010 F0                MOVX    @DPTR,A
0011 A3                INC     DPTR
0012 ED                MOV     A,R5
0013 F0                MOVX    @DPTR,A
                                           ; SOURCE LINE # 1598
0014 22                RET     
             ; FUNCTION _PWM_ComplementaryModeConfig (END)
             ; FUNCTION _PWM_DeadTimeConfig (BEGIN)
                                           ; SOURCE LINE # 1608
;---- Variable 'PWM_FallingDeadTime' assigned to Register 'R5' ----
;---- Variable 'PWM_RisingDeadTime' assigned to Register 'R7' ----
                                           ; SOURCE LINE # 1609
                                           ; SOURCE LINE # 1610
0000 AE05              MOV     R6,AR5
0002 EE                MOV     A,R6
0003 C4                SWAP    A
0004 54F0              ANL     A,#0F0H
0006 4F                ORL     A,R7
0007 F5D6              MOV     PWMDFR,A
                                           ; SOURCE LINE # 1611
0009 22                RET     
             ; FUNCTION _PWM_DeadTimeConfig (END)
             ; FUNCTION _PWM_DeadTimeConfigEX (BEGIN)
                                           ; SOURCE LINE # 1622
;---- Variable 'PWM_Type' assigned to Register 'R7' ----
;---- Variable 'PWM_FallingDeadTime' assigned to Register 'R3' ----
;---- Variable 'PWM_RisingDeadTime' assigned to Register 'R5' ----
                                           ; SOURCE LINE # 1623
                                           ; SOURCE LINE # 1624
0000 EF                MOV     A,R7
0001 7009              JNZ     ?C0047
                                           ; SOURCE LINE # 1625
                                           ; SOURCE LINE # 1626
0003 AF03              MOV     R7,AR3
0005 EF                MOV     A,R7
0006 C4                SWAP    A
0007 54F0              ANL     A,#0F0H
0009 4D                ORL     A,R5
000A F5D6              MOV     PWMDFR,A
                                           ; SOURCE LINE # 1627
                                           ; SOURCE LINE # 1628
000C         ?C0047:
000C 22                RET     
             ; FUNCTION _PWM_DeadTimeConfigEX (END)
             ; FUNCTION _PWM_Cmd (BEGIN)
                                           ; SOURCE LINE # 1637
;---- Variable 'NewState' assigned to Register 'R7' ----
                                           ; SOURCE LINE # 1638
                                           ; SOURCE LINE # 1639
0000 EF                MOV     A,R7
0001 6004              JZ      ?C0048
                                           ; SOURCE LINE # 1640
                                           ; SOURCE LINE # 1641
0003 43D280            ORL     PWMCON0,#080H
                                           ; SOURCE LINE # 1642
0006 22                RET     
0007         ?C0048:
                                           ; SOURCE LINE # 1644
                                           ; SOURCE LINE # 1645
0007 53D27F            ANL     PWMCON0,#07FH
                                           ; SOURCE LINE # 1646
                                           ; SOURCE LINE # 1647
000A         ?C0050:
000A 22                RET     
             ; FUNCTION _PWM_Cmd (END)
             ; FUNCTION L?0137 (BEGIN)
0000 AF02              MOV     R7,AR2
0002 EF                MOV     A,R7
0003 C4                SWAP    A
0004 540F              ANL     A,#0FH
0006 FF                MOV     R7,A
0007 7D01              MOV     R5,#01H
             ; FUNCTION _PWM_CmdEX (BEGIN)
                                           ; SOURCE LINE # 1657
;---- Variable 'NewState' assigned to Register 'R5' ----
;---- Variable 'PWM_Type' assigned to Register 'R7' ----
                                           ; SOURCE LINE # 1659
                                           ; SOURCE LINE # 1660
0009 EF                MOV     A,R7
000A 700B              JNZ     ?C0051
                                           ; SOURCE LINE # 1661
                                           ; SOURCE LINE # 1662
000C ED                MOV     A,R5
000D 6004              JZ      ?C0052
                                           ; SOURCE LINE # 1663
                                           ; SOURCE LINE # 1664
000F 43D280            ORL     PWMCON0,#080H
                                           ; SOURCE LINE # 1665
0012 22                RET     
0013         ?C0052:
                                           ; SOURCE LINE # 1667
                                           ; SOURCE LINE # 1668
0013 53D27F            ANL     PWMCON0,#07FH
                                           ; SOURCE LINE # 1669
                                           ; SOURCE LINE # 1670
0016 22                RET     
0017         ?C0051:
                                           ; SOURCE LINE # 1672
                                           ; SOURCE LINE # 1673
0017 8FCE              MOV     TXINX,R7
                                           ; SOURCE LINE # 1674
0019 ED                MOV     A,R5
001A 6004              JZ      ?C0055
                                           ; SOURCE LINE # 1675
                                           ; SOURCE LINE # 1676
001C 43C804            ORL     TXCON,#04H
                                           ; SOURCE LINE # 1677
001F 22                RET     
0020         ?C0055:
                                           ; SOURCE LINE # 1679
                                           ; SOURCE LINE # 1680
0020 53C8FB            ANL     TXCON,#0FBH
                                           ; SOURCE LINE # 1681
                                           ; SOURCE LINE # 1682
                                           ; SOURCE LINE # 1683
0023         ?C0057:
0023 22                RET     
             ; FUNCTION _PWM_CmdEX (END)
             ; FUNCTION _PWM_ITConfig (BEGIN)
                                           ; SOURCE LINE # 1693
;---- Variable 'Priority' assigned to Register 'R5' ----
;---- Variable 'NewState' assigned to Register 'R7' ----
                                           ; SOURCE LINE # 1695
                                           ; SOURCE LINE # 1696
0000 EF                MOV     A,R7
0001 6005              JZ      ?C0058
                                           ; SOURCE LINE # 1697
                                           ; SOURCE LINE # 1698
0003 43A902            ORL     IE1,#02H
                                           ; SOURCE LINE # 1699
0006 8003              SJMP    ?C0059
0008         ?C0058:
                                           ; SOURCE LINE # 1701
                                           ; SOURCE LINE # 1702
0008 53A9FD            ANL     IE1,#0FDH
                                           ; SOURCE LINE # 1703
000B         ?C0059:
                                           ; SOURCE LINE # 1705
000B ED                MOV     A,R5
000C 7004              JNZ     ?C0060
                                           ; SOURCE LINE # 1706
                                           ; SOURCE LINE # 1707
000E 53B9FD            ANL     IP1,#0FDH
                                           ; SOURCE LINE # 1708
0011 22                RET     
0012         ?C0060:
                                           ; SOURCE LINE # 1710
                                           ; SOURCE LINE # 1711
0012 43B902            ORL     IP1,#02H
                                           ; SOURCE LINE # 1712
                                           ; SOURCE LINE # 1713
0015         ?C0062:
0015 22                RET     
             ; FUNCTION _PWM_ITConfig (END)
             ; FUNCTION _PWM_ITConfigEX (BEGIN)
                                           ; SOURCE LINE # 1725
;---- Variable 'PWM_Type' assigned to Register 'R7' ----
;---- Variable 'Priority' assigned to Register 'R3' ----
;---- Variable 'NewState' assigned to Register 'R5' ----
                                           ; SOURCE LINE # 1726
                                           ; SOURCE LINE # 1727
0000 EF                MOV     A,R7
0001 24FE              ADD     A,#0FEH
0003 6011              JZ      ?C0065
0005 14                DEC     A
0006 6020              JZ      ?C0070
0008 14                DEC     A
0009 6033              JZ      ?C0075
000B 2404              ADD     A,#04H
000D 7044              JNZ     ?C0081
                                           ; SOURCE LINE # 1728
                                           ; SOURCE LINE # 1729
000F         ?C0064:
                                           ; SOURCE LINE # 1730
000F AF05              MOV     R7,AR5
0011 AD03              MOV     R5,AR3
0013 020000      R     LJMP    _PWM_ITConfig
                                           ; SOURCE LINE # 1731
                                           ; SOURCE LINE # 1733
0016         ?C0065:
                                           ; SOURCE LINE # 1734
                                           ; SOURCE LINE # 1735
0016 ED                MOV     A,R5
0017 7004              JNZ     ?C0066
                                           ; SOURCE LINE # 1736
0019 C2AD              CLR     ET2
001B 8002              SJMP    ?C0067
001D         ?C0066:
                                           ; SOURCE LINE # 1738
001D D2AD              SETB    ET2
001F         ?C0067:
                                           ; SOURCE LINE # 1740
001F EB                MOV     A,R3
0020 7003              JNZ     ?C0068
                                           ; SOURCE LINE # 1741
0022 C2BD              CLR     IPT2
0024 22                RET     
0025         ?C0068:
                                           ; SOURCE LINE # 1743
0025 D2BD              SETB    IPT2
                                           ; SOURCE LINE # 1744
                                           ; SOURCE LINE # 1745
0027 22                RET     
                                           ; SOURCE LINE # 1747
0028         ?C0070:
                                           ; SOURCE LINE # 1748
                                           ; SOURCE LINE # 1749
0028 ED                MOV     A,R5
0029 7005              JNZ     ?C0071
                                           ; SOURCE LINE # 1750
002B 53A9BF            ANL     IE1,#0BFH
002E 8003              SJMP    ?C0072
0030         ?C0071:
                                           ; SOURCE LINE # 1752
0030 43A940            ORL     IE1,#040H
0033         ?C0072:
                                           ; SOURCE LINE # 1754
0033 EB                MOV     A,R3
0034 7004              JNZ     ?C0073
                                           ; SOURCE LINE # 1755
0036 53B9BF            ANL     IP1,#0BFH
0039 22                RET     
003A         ?C0073:
                                           ; SOURCE LINE # 1757
003A 43B940            ORL     IP1,#040H
                                           ; SOURCE LINE # 1758
                                           ; SOURCE LINE # 1759
003D 22                RET     
                                           ; SOURCE LINE # 1761
003E         ?C0075:
                                           ; SOURCE LINE # 1762
                                           ; SOURCE LINE # 1763
003E ED                MOV     A,R5
003F 7005              JNZ     ?C0076
                                           ; SOURCE LINE # 1764
0041 53A97F            ANL     IE1,#07FH
0044 8003              SJMP    ?C0077
0046         ?C0076:
                                           ; SOURCE LINE # 1766
0046 43A980            ORL     IE1,#080H
0049         ?C0077:
                                           ; SOURCE LINE # 1768
0049 EB                MOV     A,R3
004A 7004              JNZ     ?C0078
                                           ; SOURCE LINE # 1769
004C 53B97F            ANL     IP1,#07FH
004F 22                RET     
0050         ?C0078:
                                           ; SOURCE LINE # 1771
0050 43B980            ORL     IP1,#080H
                                           ; SOURCE LINE # 1772
                                           ; SOURCE LINE # 1773
                                           ; SOURCE LINE # 1775
                                           ; SOURCE LINE # 1776
                                           ; SOURCE LINE # 1777
                                           ; SOURCE LINE # 1778
0053         ?C0081:
0053 22                RET     
             ; FUNCTION _PWM_ITConfigEX (END)
             ; FUNCTION _PWM_IndependentModeConfigEX (BEGIN)
                                           ; SOURCE LINE # 1789
;---- Variable 'PWM_ComplementaryOutputPin' assigned to Register 'R2' ----
0000 AA07              MOV     R2,AR7
;---- Variable 'PWM_OutputState' assigned to Register 'R3' ----
;---- Variable 'PWM_DutyCycle' assigned to Register 'R4/R5' ----
                                           ; SOURCE LINE # 1792
                                           ; SOURCE LINE # 1793
0002 120000      R     LCALL   _PWM_IndependentModeConfig
                                           ; SOURCE LINE # 1794
0005 AD03              MOV     R5,AR3
0007 120000      R     LCALL   _PWM_OutputStateConfig
                                           ; SOURCE LINE # 1795
000A EB                MOV     A,R3
000B 6401              XRL     A,#01H
000D 7003              JNZ     ?C0083
                                           ; SOURCE LINE # 1796
                                           ; SOURCE LINE # 1797
000F 120000      R     LCALL   L?0137
                                           ; SOURCE LINE # 1798
                                           ; SOURCE LINE # 1799
0012         ?C0083:
0012 22                RET     
             ; FUNCTION _PWM_IndependentModeConfigEX (END)
             ; FUNCTION _PWM_ComplementaryModeConfigEX (BEGIN)
                                           ; SOURCE LINE # 1810
;---- Variable 'PWM_OutputPin' assigned to Register 'R2' ----
0000 AA07              MOV     R2,AR7
;---- Variable 'PWM_OutputState' assigned to Register 'R3' ----
;---- Variable 'PWM_DutyCycle' assigned to Register 'R4/R5' ----
                                           ; SOURCE LINE # 1813
                                           ; SOURCE LINE # 1814
0002 120000      R     LCALL   _PWM_ComplementaryModeConfig
                                           ; SOURCE LINE # 1815
0005 AD03              MOV     R5,AR3
0007 120000      R     LCALL   _PWM_OutputStateConfig
                                           ; SOURCE LINE # 1816
000A EA                MOV     A,R2
000B 2402              ADD     A,#02H
000D FF                MOV     R7,A
000E 120000      R     LCALL   _PWM_OutputStateConfig
                                           ; SOURCE LINE # 1817
0011 EB                MOV     A,R3
0012 6401              XRL     A,#01H
0014 7003              JNZ     ?C0085
                                           ; SOURCE LINE # 1818
                                           ; SOURCE LINE # 1819
0016 120000      R     LCALL   L?0137
                                           ; SOURCE LINE # 1820
                                           ; SOURCE LINE # 1821
0019         ?C0085:
0019 22                RET     
             ; FUNCTION _PWM_ComplementaryModeConfigEX (END)
             ; FUNCTION PWM_GetFlagStatus (BEGIN)
                                           ; SOURCE LINE # 1830
                                           ; SOURCE LINE # 1831
                                           ; SOURCE LINE # 1832
0000 E5D2              MOV     A,PWMCON0
0002 5440              ANL     A,#040H
0004 FF                MOV     R7,A
                                           ; SOURCE LINE # 1833
0005 22                RET     
             ; FUNCTION PWM_GetFlagStatus (END)
             ; FUNCTION _PWM_GetFlagStatusEX (BEGIN)
                                           ; SOURCE LINE # 1843
;---- Variable 'PWM_Type' assigned to Register 'R7' ----
                                           ; SOURCE LINE # 1844
                                           ; SOURCE LINE # 1845
0000 EF                MOV     A,R7
0001 FD                MOV     R5,A
0002 7C00              MOV     R4,#00H
0004 7006              JNZ     ?C0087
                                           ; SOURCE LINE # 1846
                                           ; SOURCE LINE # 1847
0006 E5D2              MOV     A,PWMCON0
0008 5440              ANL     A,#040H
000A FF                MOV     R7,A
000B 22                RET     
                                           ; SOURCE LINE # 1848
000C         ?C0087:
                                           ; SOURCE LINE # 1862
000C ED                MOV     A,R5
000D 6402              XRL     A,#02H
000F 4C                ORL     A,R4
0010 6009              JZ      ?C0091
0012 EF                MOV     A,R7
0013 FD                MOV     R5,A
0014 6403              XRL     A,#03H
0016 6003              JZ      ?C0091
0018 ED                MOV     A,R5
0019 7008              JNZ     ?C0089
001B         ?C0091:
                                           ; SOURCE LINE # 1863
                                           ; SOURCE LINE # 1864
001B 8FCE              MOV     TXINX,R7
                                           ; SOURCE LINE # 1865
001D E5C8              MOV     A,TXCON
001F 5480              ANL     A,#080H
0021 FF                MOV     R7,A
0022 22                RET     
                                           ; SOURCE LINE # 1866
0023         ?C0089:
                                           ; SOURCE LINE # 1869
0023 7F00              MOV     R7,#00H
                                           ; SOURCE LINE # 1870
0025         ?C0088:
0025 22                RET     
             ; FUNCTION _PWM_GetFlagStatusEX (END)
             ; FUNCTION _PWM_ClearFlagEX (BEGIN)
                                           ; SOURCE LINE # 1879
;---- Variable 'PWM_Type' assigned to Register 'R7' ----
                                           ; SOURCE LINE # 1880
                                           ; SOURCE LINE # 1881
0000 EF                MOV     A,R7
0001 FD                MOV     R5,A
0002 7C00              MOV     R4,#00H
0004 7004              JNZ     ?C0092
                                           ; SOURCE LINE # 1882
                                           ; SOURCE LINE # 1883
0006 53D2BF            ANL     PWMCON0,#0BFH
                                           ; SOURCE LINE # 1884
0009 22                RET     
000A         ?C0092:
                                           ; SOURCE LINE # 1899
000A ED                MOV     A,R5
000B 6402              XRL     A,#02H
000D 4C                ORL     A,R4
000E 600A              JZ      ?C0095
0010 ED                MOV     A,R5
0011 6403              XRL     A,#03H
0013 4C                ORL     A,R4
0014 6004              JZ      ?C0095
0016 ED                MOV     A,R5
0017 4C                ORL     A,R4
0018 7005              JNZ     ?C0096
001A         ?C0095:
                                           ; SOURCE LINE # 1900
                                           ; SOURCE LINE # 1901
001A 8FCE              MOV     TXINX,R7
                                           ; SOURCE LINE # 1902
001C 53C87F            ANL     TXCON,#07FH
                                           ; SOURCE LINE # 1903
                                           ; SOURCE LINE # 1905
001F         ?C0096:
001F 22                RET     
             ; FUNCTION _PWM_ClearFlagEX (END)
             ; FUNCTION _PWM_GetFaultDetectionFlagStatusEX (BEGIN)
                                           ; SOURCE LINE # 1916
;---- Variable 'PWM_Type' assigned to Register 'R7' ----
                                           ; SOURCE LINE # 1917
                                           ; SOURCE LINE # 1918
0000 EF                MOV     A,R7
0001 7006              JNZ     ?C0097
                                           ; SOURCE LINE # 1919
                                           ; SOURCE LINE # 1920
0003 E5D7              MOV     A,PWMFLT
0005 5440              ANL     A,#040H
0007 FF                MOV     R7,A
0008 22                RET     
                                           ; SOURCE LINE # 1921
0009         ?C0097:
                                           ; SOURCE LINE # 1922
0009 7F00              MOV     R7,#00H
                                           ; SOURCE LINE # 1923
000B         ?C0098:
000B 22                RET     
             ; FUNCTION _PWM_GetFaultDetectionFlagStatusEX (END)
             ; FUNCTION PWM_ClearFaultDetectionFlag (BEGIN)
                                           ; SOURCE LINE # 1932
                                           ; SOURCE LINE # 1933
                                           ; SOURCE LINE # 1934
0000 53D7BF            ANL     PWMFLT,#0BFH
                                           ; SOURCE LINE # 1935
0003 22                RET     
             ; FUNCTION PWM_ClearFaultDetectionFlag (END)
             ; FUNCTION _PWM_ClearFaultDetectionFlagEX (BEGIN)
                                           ; SOURCE LINE # 1944
;---- Variable 'PWM_Type' assigned to Register 'R7' ----
                                           ; SOURCE LINE # 1945
                                           ; SOURCE LINE # 1946
0000 EF                MOV     A,R7
0001 7003              JNZ     ?C0101
                                           ; SOURCE LINE # 1947
                                           ; SOURCE LINE # 1948
0003 53D7BF            ANL     PWMFLT,#0BFH
                                           ; SOURCE LINE # 1949
                                           ; SOURCE LINE # 1950
0006         ?C0101:
0006 22                RET     
             ; FUNCTION _PWM_ClearFaultDetectionFlagEX (END)
             ; FUNCTION _PWM_FaultDetectionConfig (BEGIN)
                                           ; SOURCE LINE # 1959
;---- Variable 'NewState' assigned to Register 'R7' ----
                                           ; SOURCE LINE # 1960
                                           ; SOURCE LINE # 1961
0000 EF                MOV     A,R7
0001 6004              JZ      ?C0102
                                           ; SOURCE LINE # 1962
                                           ; SOURCE LINE # 1963
0003 43D780            ORL     PWMFLT,#080H
                                           ; SOURCE LINE # 1964
0006 22                RET     
0007         ?C0102:
                                           ; SOURCE LINE # 1966
                                           ; SOURCE LINE # 1967
0007 53D77F            ANL     PWMFLT,#07FH
                                           ; SOURCE LINE # 1968
                                           ; SOURCE LINE # 1969
000A         ?C0104:
000A 22                RET     
             ; FUNCTION _PWM_FaultDetectionConfig (END)
             ; FUNCTION _PWM_FaultDetectionConfigEX (BEGIN)
                                           ; SOURCE LINE # 1979
;---- Variable 'NewState' assigned to Register 'R5' ----
;---- Variable 'PWM_Type' assigned to Register 'R7' ----
                                           ; SOURCE LINE # 1980
                                           ; SOURCE LINE # 1981
0000 EF                MOV     A,R7
0001 700A              JNZ     ?C0108
                                           ; SOURCE LINE # 1982
                                           ; SOURCE LINE # 1983
0003 ED                MOV     A,R5
0004 6004              JZ      ?C0106
                                           ; SOURCE LINE # 1984
                                           ; SOURCE LINE # 1985
0006 43D780            ORL     PWMFLT,#080H
                                           ; SOURCE LINE # 1986
0009 22                RET     
000A         ?C0106:
                                           ; SOURCE LINE # 1988
                                           ; SOURCE LINE # 1989
000A 53D77F            ANL     PWMFLT,#07FH
                                           ; SOURCE LINE # 1990
                                           ; SOURCE LINE # 1991
                                           ; SOURCE LINE # 1992
000D         ?C0108:
000D 22                RET     
             ; FUNCTION _PWM_FaultDetectionConfigEX (END)
             ; FUNCTION _PWM_FaultDetectionModeConfig (BEGIN)
                                           ; SOURCE LINE # 2005
;---- Variable 'FaultDetectionMode' assigned to Register 'R7' ----
;---- Variable 'FaultDetectionWaveFilteringTime' assigned to Register 'R3' ----
;---- Variable 'FaultDetectionVoltageSelect' assigned to Register 'R5' ----
                                           ; SOURCE LINE # 2008
                                           ; SOURCE LINE # 2009
0000 E5D7              MOV     A,PWMFLT
0002 54C0              ANL     A,#0C0H
0004 4F                ORL     A,R7
0005 4D                ORL     A,R5
0006 4B                ORL     A,R3
0007 F5D7              MOV     PWMFLT,A
                                           ; SOURCE LINE # 2011
0009 22                RET     
             ; FUNCTION _PWM_FaultDetectionModeConfig (END)
             ; FUNCTION _PWM_FaultDetectionModeConfigEX (BEGIN)
                                           ; SOURCE LINE # 2023
;---- Variable 'PWM_Type' assigned to Register 'R7' ----
;---- Variable 'FaultDetectionVoltageSelect' assigned to Register 'R3' ----
;---- Variable 'FaultDetectionMode' assigned to Register 'R5' ----
                                           ; SOURCE LINE # 2027
                                           ; SOURCE LINE # 2028
0000 EF                MOV     A,R7
0001 700E              JNZ     ?C0111
                                           ; SOURCE LINE # 2029
                                           ; SOURCE LINE # 2030
0003 E5D7              MOV     A,PWMFLT
0005 54C0              ANL     A,#0C0H
0007 4D                ORL     A,R5
0008 4B                ORL     A,R3
0009 FF                MOV     R7,A
000A 900000      R     MOV     DPTR,#FaultDetectionWaveFilteringTime
000D E0                MOVX    A,@DPTR
000E 4F                ORL     A,R7
000F F5D7              MOV     PWMFLT,A
                                           ; SOURCE LINE # 2032
                                           ; SOURCE LINE # 2033
0011         ?C0111:
0011 22                RET     
             ; FUNCTION _PWM_FaultDetectionModeConfigEX (END)
             ; FUNCTION _PWM_IndependentMode_DutyChange (BEGIN)
                                           ; SOURCE LINE # 2047
0000 900000      R     MOV     DPTR,#Change_Direction
0003 ED                MOV     A,R5
0004 F0                MOVX    @DPTR,A
0005 A3                INC     DPTR
0006 EA                MOV     A,R2
0007 F0                MOVX    @DPTR,A
0008 A3                INC     DPTR
0009 EB                MOV     A,R3
000A F0                MOVX    @DPTR,A
;---- Variable 'PWM_OutputPin' assigned to Register 'R1' ----
000B A907              MOV     R1,AR7
                                           ; SOURCE LINE # 2049
                                           ; SOURCE LINE # 2052
000D AFD5              MOV     R7,PWMPDH
000F EF                MOV     A,R7
0010 FE                MOV     R6,A
0011 ADD4              MOV     R5,PWMPDL
0013 7C00              MOV     R4,#00H
0015 E4                CLR     A
0016 2D                ADD     A,R5
0017 FF                MOV     R7,A
0018 EC                MOV     A,R4
0019 3E                ADDC    A,R6
001A 900000      R     MOV     DPTR,#tmpPolarity
001D F0                MOVX    @DPTR,A
001E A3                INC     DPTR
001F EF                MOV     A,R7
0020 F0                MOVX    @DPTR,A
                                           ; SOURCE LINE # 2055
0021 E9                MOV     A,R1
0022 54F0              ANL     A,#0F0H
0024 700F              JNZ     ?C0112
                                           ; SOURCE LINE # 2056
                                           ; SOURCE LINE # 2057
0026 53D2FD            ANL     PWMCON0,#0FDH
                                           ; SOURCE LINE # 2058
0029 E9                MOV     A,R1
002A 25E0              ADD     A,ACC
002C 2400        R     ADD     A,#LOW PWMREG+0CH
002E F582              MOV     DPL,A
0030 E4                CLR     A
0031 3400        R     ADDC    A,#HIGH PWMREG+0CH
                                           ; SOURCE LINE # 2059
0033 800C              SJMP    ?C0135
0035         ?C0112:
                                           ; SOURCE LINE # 2061
                                           ; SOURCE LINE # 2062
0035 E9                MOV     A,R1
0036 540F              ANL     A,#0FH
0038 25E0              ADD     A,ACC
003A 2400        R     ADD     A,#LOW PWMREG
003C F582              MOV     DPL,A
003E E4                CLR     A
003F 3400        R     ADDC    A,#HIGH PWMREG
0041         ?C0135:
0041 AF82              MOV     R7,DPL
0043 900000      R     MOV     DPTR,#tmpRegAdress
0046 F0                MOVX    @DPTR,A
0047 A3                INC     DPTR
0048 EF                MOV     A,R7
0049 F0                MOVX    @DPTR,A
                                           ; SOURCE LINE # 2063
004A         ?C0113:
                                           ; SOURCE LINE # 2065
004A 900000      R     MOV     DPTR,#tmpRegAdress
004D E0                MOVX    A,@DPTR
004E FE                MOV     R6,A
004F A3                INC     DPTR
0050 E0                MOVX    A,@DPTR
0051 F582              MOV     DPL,A
0053 8E83              MOV     DPH,R6
0055 E0                MOVX    A,@DPTR
0056 FE                MOV     R6,A
0057 A3                INC     DPTR
0058 E0                MOVX    A,@DPTR
0059 FF                MOV     R7,A
;---- Variable 'tmpRegValue' assigned to Register 'R6/R7' ----
                                           ; SOURCE LINE # 2066
005A 900000      R     MOV     DPTR,#Change_Direction
005D E0                MOVX    A,@DPTR
005E 6401              XRL     A,#01H
0060 700C              JNZ     ?C0114
                                           ; SOURCE LINE # 2067
                                           ; SOURCE LINE # 2068
0062 A3                INC     DPTR
0063 E0                MOVX    A,@DPTR
0064 FC                MOV     R4,A
0065 A3                INC     DPTR
0066 E0                MOVX    A,@DPTR
0067 2F                ADD     A,R7
0068 FF                MOV     R7,A
0069 EC                MOV     A,R4
006A 3E                ADDC    A,R6
006B FE                MOV     R6,A
                                           ; SOURCE LINE # 2069
006C 800F              SJMP    ?C0115
006E         ?C0114:
                                           ; SOURCE LINE # 2071
                                           ; SOURCE LINE # 2072
006E 900000      R     MOV     DPTR,#DutyIncremental
0071 E0                MOVX    A,@DPTR
0072 FC                MOV     R4,A
0073 A3                INC     DPTR
0074 E0                MOVX    A,@DPTR
0075 FD                MOV     R5,A
0076 C3                CLR     C
0077 EF                MOV     A,R7
0078 9D                SUBB    A,R5
0079 FF                MOV     R7,A
007A EE                MOV     A,R6
007B 9C                SUBB    A,R4
007C FE                MOV     R6,A
                                           ; SOURCE LINE # 2073
007D         ?C0115:
                                           ; SOURCE LINE # 2075
007D C3                CLR     C
007E 900000      R     MOV     DPTR,#tmpPolarity+01H
0081 E0                MOVX    A,@DPTR
0082 9F                SUBB    A,R7
0083 900000      R     MOV     DPTR,#tmpPolarity
0086 E0                MOVX    A,@DPTR
0087 9E                SUBB    A,R6
0088 5003              JNC     ?C0116
                                           ; SOURCE LINE # 2076
008A 7F00              MOV     R7,#00H
008C 22                RET     
008D         ?C0116:
                                           ; SOURCE LINE # 2077
008D 900000      R     MOV     DPTR,#tmpRegAdress
0090 E0                MOVX    A,@DPTR
0091 FC                MOV     R4,A
0092 A3                INC     DPTR
0093 E0                MOVX    A,@DPTR
0094 F582              MOV     DPL,A
0096 8C83              MOV     DPH,R4
0098 EE                MOV     A,R6
0099 F0                MOVX    @DPTR,A
009A A3                INC     DPTR
009B EF                MOV     A,R7
009C F0                MOVX    @DPTR,A
                                           ; SOURCE LINE # 2078
009D 7F01              MOV     R7,#01H
                                           ; SOURCE LINE # 2079
009F         ?C0117:
009F 22                RET     
             ; FUNCTION _PWM_IndependentMode_DutyChange (END)
             ; FUNCTION _PWM_ComplementaryMode_DutyChange (BEGIN)
                                           ; SOURCE LINE # 2091
0000 900000      R     MOV     DPTR,#Change_Direction
0003 ED                MOV     A,R5
0004 F0                MOVX    @DPTR,A
0005 A3                INC     DPTR
0006 EA                MOV     A,R2
0007 F0                MOVX    @DPTR,A
0008 A3                INC     DPTR
0009 EB                MOV     A,R3
000A F0                MOVX    @DPTR,A
;---- Variable 'PWM_ComplementaryOutputPin' assigned to Register 'R1' ----
000B A907              MOV     R1,AR7
                                           ; SOURCE LINE # 2093
                                           ; SOURCE LINE # 2096
000D AFD5              MOV     R7,PWMPDH
000F EF                MOV     A,R7
0010 FE                MOV     R6,A
0011 ADD4              MOV     R5,PWMPDL
0013 7C00              MOV     R4,#00H
0015 E4                CLR     A
0016 2D                ADD     A,R5
0017 FF                MOV     R7,A
0018 EC                MOV     A,R4
0019 3E                ADDC    A,R6
001A 900000      R     MOV     DPTR,#tmpPolarity
001D F0                MOVX    @DPTR,A
001E A3                INC     DPTR
001F EF                MOV     A,R7
0020 F0                MOVX    @DPTR,A
                                           ; SOURCE LINE # 2098
0021 E9                MOV     A,R1
0022 54F0              ANL     A,#0F0H
0024 700C              JNZ     ?C0118
                                           ; SOURCE LINE # 2099
                                           ; SOURCE LINE # 2100
0026 E9                MOV     A,R1
0027 25E0              ADD     A,ACC
0029 2400        R     ADD     A,#LOW PWMREG+0CH
002B F582              MOV     DPL,A
002D E4                CLR     A
002E 3400        R     ADDC    A,#HIGH PWMREG+0CH
                                           ; SOURCE LINE # 2101
0030 800C              SJMP    ?C0136
0032         ?C0118:
                                           ; SOURCE LINE # 2103
                                           ; SOURCE LINE # 2104
0032 E9                MOV     A,R1
0033 540F              ANL     A,#0FH
0035 25E0              ADD     A,ACC
0037 2400        R     ADD     A,#LOW PWMREG
0039 F582              MOV     DPL,A
003B E4                CLR     A
003C 3400        R     ADDC    A,#HIGH PWMREG
003E         ?C0136:
003E AF82              MOV     R7,DPL
0040 900000      R     MOV     DPTR,#tmpRegAdress
0043 F0                MOVX    @DPTR,A
0044 A3                INC     DPTR
0045 EF                MOV     A,R7
0046 F0                MOVX    @DPTR,A
                                           ; SOURCE LINE # 2105
0047         ?C0119:
                                           ; SOURCE LINE # 2107
0047 900000      R     MOV     DPTR,#tmpRegAdress
004A E0                MOVX    A,@DPTR
004B FE                MOV     R6,A
004C A3                INC     DPTR
004D E0                MOVX    A,@DPTR
004E F582              MOV     DPL,A
0050 8E83              MOV     DPH,R6
0052 E0                MOVX    A,@DPTR
0053 FE                MOV     R6,A
0054 A3                INC     DPTR
0055 E0                MOVX    A,@DPTR
0056 FF                MOV     R7,A
;---- Variable 'tmpRegValue' assigned to Register 'R6/R7' ----
                                           ; SOURCE LINE # 2108
0057 900000      R     MOV     DPTR,#Change_Direction
005A E0                MOVX    A,@DPTR
005B 6401              XRL     A,#01H
005D 700C              JNZ     ?C0120
                                           ; SOURCE LINE # 2109
                                           ; SOURCE LINE # 2110
005F A3                INC     DPTR
0060 E0                MOVX    A,@DPTR
0061 FC                MOV     R4,A
0062 A3                INC     DPTR
0063 E0                MOVX    A,@DPTR
0064 2F                ADD     A,R7
0065 FF                MOV     R7,A
0066 EC                MOV     A,R4
0067 3E                ADDC    A,R6
0068 FE                MOV     R6,A
                                           ; SOURCE LINE # 2111
0069 800F              SJMP    ?C0121
006B         ?C0120:
                                           ; SOURCE LINE # 2113
                                           ; SOURCE LINE # 2114
006B 900000      R     MOV     DPTR,#DutyIncremental
006E E0                MOVX    A,@DPTR
006F FC                MOV     R4,A
0070 A3                INC     DPTR
0071 E0                MOVX    A,@DPTR
0072 FD                MOV     R5,A
0073 C3                CLR     C
0074 EF                MOV     A,R7
0075 9D                SUBB    A,R5
0076 FF                MOV     R7,A
0077 EE                MOV     A,R6
0078 9C                SUBB    A,R4
0079 FE                MOV     R6,A
                                           ; SOURCE LINE # 2115
007A         ?C0121:
                                           ; SOURCE LINE # 2117
007A C3                CLR     C
007B 900000      R     MOV     DPTR,#tmpPolarity+01H
007E E0                MOVX    A,@DPTR
007F 9F                SUBB    A,R7
0080 900000      R     MOV     DPTR,#tmpPolarity
0083 E0                MOVX    A,@DPTR
0084 9E                SUBB    A,R6
0085 5003              JNC     ?C0122
                                           ; SOURCE LINE # 2118
0087 7F00              MOV     R7,#00H
0089 22                RET     
008A         ?C0122:
                                           ; SOURCE LINE # 2119
008A 900000      R     MOV     DPTR,#tmpRegAdress
008D E0                MOVX    A,@DPTR
008E FC                MOV     R4,A
008F A3                INC     DPTR
0090 E0                MOVX    A,@DPTR
0091 F582              MOV     DPL,A
0093 8C83              MOV     DPH,R4
0095 EE                MOV     A,R6
0096 F0                MOVX    @DPTR,A
0097 A3                INC     DPTR
0098 EF                MOV     A,R7
0099 F0                MOVX    @DPTR,A
                                           ; SOURCE LINE # 2120
009A 7F01              MOV     R7,#01H
                                           ; SOURCE LINE # 2121
009C         ?C0123:
009C 22                RET     
             ; FUNCTION _PWM_ComplementaryMode_DutyChange (END)
NAME                                    CLASS   MSPACE  TYPE    OFFSET  SIZE
TIM4_WORK_MODE3. . . . . . . . . . . .  E_CONST  -----  U_CHAR   -----  1
uint16_t . . . . . . . . . . . . . . .  TYPEDEF  -----  U_INT    -----  2
TRX. . . . . . . . . . . . . . . . . .  ABSBIT   -----  BIT      00CAH  1
OPREG. . . . . . . . . . . . . . . . .  SFR      DATA   U_CHAR   00FFH  1
P0 . . . . . . . . . . . . . . . . . .  SFR      DATA   U_CHAR   0080H  1
_PWM_ClearFaultDetectionFlagEX . . . .  PUBLIC   CODE   PROC     0000H  -----
  PWM_Type . . . . . . . . . . . . . .  * REG *  DATA   U_CHAR   0007H  1
P1 . . . . . . . . . . . . . . . . . .  SFR      DATA   U_CHAR   0090H  1
PWM0_PRESSEL_FHRC_D1 . . . . . . . . .  E_CONST  -----  U_CHAR   -----  1
P2 . . . . . . . . . . . . . . . . . .  SFR      DATA   U_CHAR   00A0H  1
PWM0_Immediate_Mode. . . . . . . . . .  E_CONST  -----  U_CHAR   -----  1
PWM0_PRESSEL_FHRC_D2 . . . . . . . . .  E_CONST  -----  U_CHAR   -----  1
Status_OK. . . . . . . . . . . . . . .  E_CONST  -----  U_CHAR   -----  1
EUART. . . . . . . . . . . . . . . . .  ABSBIT   -----  BIT      00ACH  1
TMCON. . . . . . . . . . . . . . . . .  SFR      DATA   U_CHAR   008EH  1
P3 . . . . . . . . . . . . . . . . . .  SFR      DATA   U_CHAR   00B0H  1
PWM2_PRESSEL_FHRC_D1 . . . . . . . . .  E_CONST  -----  U_CHAR   -----  1
AC . . . . . . . . . . . . . . . . . .  ABSBIT   -----  BIT      00D6H  1
P4 . . . . . . . . . . . . . . . . . .  SFR      DATA   U_CHAR   00C0H  1
PWM3_PRESSEL_FHRC_D1 . . . . . . . . .  E_CONST  -----  U_CHAR   -----  1
PWM0_PRESSEL_FHRC_D4 . . . . . . . . .  E_CONST  -----  U_CHAR   -----  1
FlagStatus . . . . . . . . . . . . . .  TYPEDEF  -----  U_CHAR   -----  1
RESET. . . . . . . . . . . . . . . . .  E_CONST  -----  U_CHAR   -----  1
OTCON. . . . . . . . . . . . . . . . .  SFR      DATA   U_CHAR   008FH  1
P5 . . . . . . . . . . . . . . . . . .  SFR      DATA   U_CHAR   00D8H  1
PWM_OutputState_TypeDef. . . . . . . .  TYPEDEF  -----  U_CHAR   -----  1
PWM0_FaultDetectionVoltage_high. . . .  E_CONST  -----  U_CHAR   -----  1
PWM4_PRESSEL_FHRC_D1 . . . . . . . . .  E_CONST  -----  U_CHAR   -----  1
EA . . . . . . . . . . . . . . . . . .  ABSBIT   -----  BIT      00AFH  1
RCLKX. . . . . . . . . . . . . . . . .  ABSBIT   -----  BIT      00CDH  1
int32_t. . . . . . . . . . . . . . . .  TYPEDEF  -----  LONG     -----  4
PWMCON0. . . . . . . . . . . . . . . .  SFR      DATA   U_CHAR   00D2H  1
TIM2_MODE_TIMER. . . . . . . . . . . .  E_CONST  -----  U_CHAR   -----  1
TCLKX. . . . . . . . . . . . . . . . .  ABSBIT   -----  BIT      00CCH  1
PWMCON1. . . . . . . . . . . . . . . .  SFR      DATA   U_CHAR   00D3H  1
TIM3_MODE_TIMER. . . . . . . . . . . .  E_CONST  -----  U_CHAR   -----  1
_PWM_CmdEX . . . . . . . . . . . . . .  PUBLIC   CODE   PROC     0009H  -----
  PWM_Type . . . . . . . . . . . . . .  * REG *  DATA   U_CHAR   0007H  1
  NewState . . . . . . . . . . . . . .  * REG *  DATA   U_CHAR   0005H  1
PWM_POLARITY_INVERT. . . . . . . . . .  E_CONST  -----  U_CHAR   -----  1
PWM0_PRESSEL_FHRC_D8 . . . . . . . . .  E_CONST  -----  U_CHAR   -----  1
int16_t. . . . . . . . . . . . . . . .  TYPEDEF  -----  INT      -----  2
TIM4_MODE_TIMER. . . . . . . . . . . .  E_CONST  -----  U_CHAR   -----  1
_PWM_PolarityConfig. . . . . . . . . .  PUBLIC   CODE   PROC     0000H  -----
  PWM_OutputPin. . . . . . . . . . . .  * REG *  DATA   U_CHAR   0007H  1
  PWM_Polarity . . . . . . . . . . . .  * REG *  DATA   U_CHAR   0005H  1
  Reg_Data . . . . . . . . . . . . . .  * REG *  DATA   U_CHAR   0006H  1
PWM0_WaveFilteringTime_16us. . . . . .  E_CONST  -----  U_CHAR   -----  1
EXENX. . . . . . . . . . . . . . . . .  ABSBIT   -----  BIT      00CBH  1
PWM_Aligned_Mode_TypeDef . . . . . . .  TYPEDEF  -----  U_CHAR   -----  1
ERROR. . . . . . . . . . . . . . . . .  E_CONST  -----  U_CHAR   -----  1
EADC . . . . . . . . . . . . . . . . .  ABSBIT   -----  BIT      00AEH  1
TXMOD. . . . . . . . . . . . . . . . .  SFR      DATA   U_CHAR   00C9H  1
TXCON. . . . . . . . . . . . . . . . .  SFR      DATA   U_CHAR   00C8H  1
IE . . . . . . . . . . . . . . . . . .  SFR      DATA   U_CHAR   00A8H  1
DPH1 . . . . . . . . . . . . . . . . .  SFR      DATA   U_CHAR   0085H  1
EXA0 . . . . . . . . . . . . . . . . .  SFR      DATA   U_CHAR   00E9H  1
NAME                                    CLASS   MSPACE  TYPE    OFFSET  SIZE
TIM2_Flag_TypeDef. . . . . . . . . . .  TYPEDEF  -----  U_CHAR   -----  1
TIM2_FLAG_EXF2 . . . . . . . . . . . .  E_CONST  -----  U_CHAR   -----  1
PWM_Type_TypeDef . . . . . . . . . . .  TYPEDEF  -----  U_CHAR   -----  1
OPINX. . . . . . . . . . . . . . . . .  SFR      DATA   U_CHAR   00FEH  1
EXA1 . . . . . . . . . . . . . . . . .  SFR      DATA   U_CHAR   00EAH  1
TIM3_Flag_TypeDef. . . . . . . . . . .  TYPEDEF  -----  U_CHAR   -----  1
EXA2 . . . . . . . . . . . . . . . . .  SFR      DATA   U_CHAR   00EBH  1
TIM4_Flag_TypeDef. . . . . . . . . . .  TYPEDEF  -----  U_CHAR   -----  1
TIM3_FLAG_EXF3 . . . . . . . . . . . .  E_CONST  -----  U_CHAR   -----  1
EXA3 . . . . . . . . . . . . . . . . .  SFR      DATA   U_CHAR   00ECH  1
DPL1 . . . . . . . . . . . . . . . . .  SFR      DATA   U_CHAR   0084H  1
Status_TIMEOUT . . . . . . . . . . . .  E_CONST  -----  U_CHAR   -----  1
CP . . . . . . . . . . . . . . . . . .  ABSBIT   -----  BIT      00C8H  1
USXCON0. . . . . . . . . . . . . . . .  SFR      DATA   U_CHAR   00C4H  1
TIM4_FLAG_EXF4 . . . . . . . . . . . .  E_CONST  -----  U_CHAR   -----  1
USXCON1. . . . . . . . . . . . . . . .  SFR      DATA   U_CHAR   00C5H  1
PWM_ComplementaryOutputPin_TypeDef . .  TYPEDEF  -----  U_CHAR   -----  1
USXCON2. . . . . . . . . . . . . . . .  SFR      DATA   U_CHAR   00C6H  1
PWM_DeInit . . . . . . . . . . . . . .  PUBLIC   CODE   PROC     0000H  -----
  i. . . . . . . . . . . . . . . . . .  * REG *  DATA   U_CHAR   0007H  1
ErrorStatus. . . . . . . . . . . . . .  TYPEDEF  -----  U_CHAR   -----  1
USXCON3. . . . . . . . . . . . . . . .  SFR      DATA   U_CHAR   00C7H  1
PWM0_FaultDetectionVoltage_Low . . . .  E_CONST  -----  U_CHAR   -----  1
PWM_FaultDetectionMode_TypeDef . . . .  TYPEDEF  -----  U_CHAR   -----  1
OPERCON. . . . . . . . . . . . . . . .  SFR      DATA   U_CHAR   00EFH  1
P0PH . . . . . . . . . . . . . . . . .  SFR      DATA   U_CHAR   009BH  1
IP . . . . . . . . . . . . . . . . . .  SFR      DATA   U_CHAR   00B8H  1
P1PH . . . . . . . . . . . . . . . . .  SFR      DATA   U_CHAR   0092H  1
_PWM_ComplementaryMode_DutyChange. . .  PUBLIC   CODE   PROC     0000H  -----
  PWM_ComplementaryOutputPin . . . . .  * REG *  DATA   U_CHAR   0001H  1
  Change_Direction . . . . . . . . . .  AUTO     XDATA  U_CHAR   0000H  1
  DutyIncremental. . . . . . . . . . .  AUTO     XDATA  U_INT    0001H  2
  tmpRegValue. . . . . . . . . . . . .  * REG *  DATA   U_INT    0006H  2
  tmpRegAdress . . . . . . . . . . . .  AUTO     XDATA  U_INT    0003H  2
  tmpPolarity. . . . . . . . . . . . .  AUTO     XDATA  U_INT    0005H  2
_PWM_GetFlagStatusEX . . . . . . . . .  PUBLIC   CODE   PROC     0000H  -----
  PWM_Type . . . . . . . . . . . . . .  * REG *  DATA   U_CHAR   0007H  1
RI . . . . . . . . . . . . . . . . . .  ABSBIT   -----  BIT      0098H  1
P2PH . . . . . . . . . . . . . . . . .  SFR      DATA   U_CHAR   00A2H  1
TIM2_PRESSEL_FSYS_D1 . . . . . . . . .  E_CONST  -----  U_CHAR   -----  1
SUCCESS. . . . . . . . . . . . . . . .  E_CONST  -----  U_CHAR   -----  1
CY . . . . . . . . . . . . . . . . . .  ABSBIT   -----  BIT      00D7H  1
P3PH . . . . . . . . . . . . . . . . .  SFR      DATA   U_CHAR   00B2H  1
TIM3_PRESSEL_FSYS_D1 . . . . . . . . .  E_CONST  -----  U_CHAR   -----  1
TI . . . . . . . . . . . . . . . . . .  ABSBIT   -----  BIT      0099H  1
TXINX. . . . . . . . . . . . . . . . .  SFR      DATA   U_CHAR   00CEH  1
P4PH . . . . . . . . . . . . . . . . .  SFR      DATA   U_CHAR   00C2H  1
TIM4_PRESSEL_FSYS_D1 . . . . . . . . .  E_CONST  -----  U_CHAR   -----  1
IPT0 . . . . . . . . . . . . . . . . .  ABSBIT   -----  BIT      00B9H  1
P5PH . . . . . . . . . . . . . . . . .  SFR      DATA   U_CHAR   00DAH  1
FunctionalState. . . . . . . . . . . .  TYPEDEF  -----  U_CHAR   -----  1
IPT1 . . . . . . . . . . . . . . . . .  ABSBIT   -----  BIT      00BBH  1
IPT2 . . . . . . . . . . . . . . . . .  ABSBIT   -----  BIT      00BDH  1
HIGH . . . . . . . . . . . . . . . . .  E_CONST  -----  U_CHAR   -----  1
_PWM_ComplementaryModeConfig . . . . .  PUBLIC   CODE   PROC     0000H  -----
  PWM_ComplementaryOutputPin . . . . .  * REG *  DATA   U_CHAR   0007H  1
  PWM_DutyCycle. . . . . . . . . . . .  * REG *  DATA   U_INT    0004H  2
NAME                                    CLASS   MSPACE  TYPE    OFFSET  SIZE
SP . . . . . . . . . . . . . . . . . .  SFR      DATA   U_CHAR   0081H  1
PWM_OUTPUTSTATE_DISABLE. . . . . . . .  E_CONST  -----  U_CHAR   -----  1
OV . . . . . . . . . . . . . . . . . .  ABSBIT   -----  BIT      00D2H  1
ITStatus . . . . . . . . . . . . . . .  TYPEDEF  -----  U_CHAR   -----  1
IAPADE . . . . . . . . . . . . . . . .  SFR      DATA   U_CHAR   00F4H  1
P0VO . . . . . . . . . . . . . . . . .  SFR      DATA   U_CHAR   009CH  1
_PWM_IndependentMode_DutyChange. . . .  PUBLIC   CODE   PROC     0000H  -----
  PWM_OutputPin. . . . . . . . . . . .  * REG *  DATA   U_CHAR   0001H  1
  Change_Direction . . . . . . . . . .  AUTO     XDATA  U_CHAR   0000H  1
  DutyIncremental. . . . . . . . . . .  AUTO     XDATA  U_INT    0001H  2
  tmpRegValue. . . . . . . . . . . . .  * REG *  DATA   U_INT    0006H  2
  tmpRegAdress . . . . . . . . . . . .  AUTO     XDATA  U_INT    0003H  2
  tmpPolarity. . . . . . . . . . . . .  AUTO     XDATA  U_INT    0005H  2
P1VO . . . . . . . . . . . . . . . . .  SFR      DATA   U_CHAR   0094H  1
TIM2_CountMode_TypeDef . . . . . . . .  TYPEDEF  -----  U_CHAR   -----  1
TIM2_MODE_COUNTER. . . . . . . . . . .  E_CONST  -----  U_CHAR   -----  1
P2VO . . . . . . . . . . . . . . . . .  SFR      DATA   U_CHAR   00A3H  1
EXBH . . . . . . . . . . . . . . . . .  SFR      DATA   U_CHAR   00EEH  1
TIM3_CountMode_TypeDef . . . . . . . .  TYPEDEF  -----  U_CHAR   -----  1
TIM3_MODE_COUNTER. . . . . . . . . . .  E_CONST  -----  U_CHAR   -----  1
ENABLE . . . . . . . . . . . . . . . .  E_CONST  -----  U_CHAR   -----  1
BitStatus. . . . . . . . . . . . . . .  TYPEDEF  -----  U_CHAR   -----  1
IAPADH . . . . . . . . . . . . . . . .  SFR      DATA   U_CHAR   00F3H  1
P3VO . . . . . . . . . . . . . . . . .  SFR      DATA   U_CHAR   00B3H  1
TIM4_CountMode_TypeDef . . . . . . . .  TYPEDEF  -----  U_CHAR   -----  1
TIM4_MODE_COUNTER. . . . . . . . . . .  E_CONST  -----  U_CHAR   -----  1
PWM0_Type. . . . . . . . . . . . . . .  E_CONST  -----  U_CHAR   -----  1
PWM_OutputPin_TypeDef. . . . . . . . .  TYPEDEF  -----  U_CHAR   -----  1
ADCCON . . . . . . . . . . . . . . . .  SFR      DATA   U_CHAR   00ADH  1
s8 . . . . . . . . . . . . . . . . . .  TYPEDEF  -----  CHAR     -----  1
PWM2_Type. . . . . . . . . . . . . . .  E_CONST  -----  U_CHAR   -----  1
TX . . . . . . . . . . . . . . . . . .  ABSBIT   -----  BIT      00C9H  1
EXBL . . . . . . . . . . . . . . . . .  SFR      DATA   U_CHAR   00EDH  1
PWM3_Type. . . . . . . . . . . . . . .  E_CONST  -----  U_CHAR   -----  1
PWM00PWM01 . . . . . . . . . . . . . .  E_CONST  -----  U_CHAR   -----  1
Status_BUSY. . . . . . . . . . . . . .  E_CONST  -----  U_CHAR   -----  1
u8 . . . . . . . . . . . . . . . . . .  TYPEDEF  -----  U_CHAR   -----  1
IAPADL . . . . . . . . . . . . . . . .  SFR      DATA   U_CHAR   00F2H  1
_PWM_IndependentModeConfig . . . . . .  PUBLIC   CODE   PROC     0000H  -----
  PWM_OutputPin. . . . . . . . . . . .  * REG *  DATA   U_CHAR   0007H  1
  PWM_DutyCycle. . . . . . . . . . . .  AUTO     XDATA  U_INT    0000H  2
PWM4_Type. . . . . . . . . . . . . . .  E_CONST  -----  U_CHAR   -----  1
PWM_PresSel_TypeDef. . . . . . . . . .  TYPEDEF  -----  U_CHAR   -----  1
bool . . . . . . . . . . . . . . . . .  TYPEDEF  -----  U_CHAR   -----  1
P00. . . . . . . . . . . . . . . . . .  ABSBIT   -----  BIT      0080H  1
PWM02PWM03 . . . . . . . . . . . . . .  E_CONST  -----  U_CHAR   -----  1
P10. . . . . . . . . . . . . . . . . .  ABSBIT   -----  BIT      0090H  1
P01. . . . . . . . . . . . . . . . . .  ABSBIT   -----  BIT      0081H  1
SBUF . . . . . . . . . . . . . . . . .  SFR      DATA   U_CHAR   0099H  1
PCON . . . . . . . . . . . . . . . . .  SFR      DATA   U_CHAR   0087H  1
_PWM_DeadTimeConfig. . . . . . . . . .  PUBLIC   CODE   PROC     0000H  -----
  PWM_RisingDeadTime . . . . . . . . .  * REG *  DATA   U_CHAR   0007H  1
  PWM_FallingDeadTime. . . . . . . . .  * REG *  DATA   U_CHAR   0005H  1
P20. . . . . . . . . . . . . . . . . .  ABSBIT   -----  BIT      00A0H  1
P11. . . . . . . . . . . . . . . . . .  ABSBIT   -----  BIT      0091H  1
P02. . . . . . . . . . . . . . . . . .  ABSBIT   -----  BIT      0082H  1
CMPCFG . . . . . . . . . . . . . . . .  SFR      DATA   U_CHAR   00B6H  1
NAME                                    CLASS   MSPACE  TYPE    OFFSET  SIZE
P30. . . . . . . . . . . . . . . . . .  ABSBIT   -----  BIT      00B0H  1
P21. . . . . . . . . . . . . . . . . .  ABSBIT   -----  BIT      00A1H  1
P12. . . . . . . . . . . . . . . . . .  ABSBIT   -----  BIT      0092H  1
P03. . . . . . . . . . . . . . . . . .  ABSBIT   -----  BIT      0083H  1
_PWM_DeInitEX. . . . . . . . . . . . .  PUBLIC   CODE   PROC     0000H  -----
  PWM_Type . . . . . . . . . . . . . .  * REG *  DATA   U_CHAR   0007H  1
  i. . . . . . . . . . . . . . . . . .  AUTO     XDATA  U_CHAR   0000H  1
P40. . . . . . . . . . . . . . . . . .  ABSBIT   -----  BIT      00C0H  1
P31. . . . . . . . . . . . . . . . . .  ABSBIT   -----  BIT      00B1H  1
P22. . . . . . . . . . . . . . . . . .  ABSBIT   -----  BIT      00A2H  1
P13. . . . . . . . . . . . . . . . . .  ABSBIT   -----  BIT      0093H  1
P04. . . . . . . . . . . . . . . . . .  ABSBIT   -----  BIT      0084H  1
SCON . . . . . . . . . . . . . . . . .  SFR      DATA   U_CHAR   0098H  1
TIM2_COUNTDIRECTION_UP . . . . . . . .  E_CONST  -----  U_CHAR   -----  1
PWM04PWM05 . . . . . . . . . . . . . .  E_CONST  -----  U_CHAR   -----  1
P50. . . . . . . . . . . . . . . . . .  ABSBIT   -----  BIT      00D8H  1
P41. . . . . . . . . . . . . . . . . .  ABSBIT   -----  BIT      00C1H  1
P32. . . . . . . . . . . . . . . . . .  ABSBIT   -----  BIT      00B2H  1
P23. . . . . . . . . . . . . . . . . .  ABSBIT   -----  BIT      00A3H  1
P14. . . . . . . . . . . . . . . . . .  ABSBIT   -----  BIT      0094H  1
P05. . . . . . . . . . . . . . . . . .  ABSBIT   -----  BIT      0085H  1
IAPDAT . . . . . . . . . . . . . . . .  SFR      DATA   U_CHAR   00F5H  1
TMOD . . . . . . . . . . . . . . . . .  SFR      DATA   U_CHAR   0089H  1
TCON . . . . . . . . . . . . . . . . .  SFR      DATA   U_CHAR   0088H  1
TIM3_COUNTDIRECTION_UP . . . . . . . .  E_CONST  -----  U_CHAR   -----  1
P51. . . . . . . . . . . . . . . . . .  ABSBIT   -----  BIT      00D9H  1
P42. . . . . . . . . . . . . . . . . .  ABSBIT   -----  BIT      00C2H  1
P33. . . . . . . . . . . . . . . . . .  ABSBIT   -----  BIT      00B3H  1
P24. . . . . . . . . . . . . . . . . .  ABSBIT   -----  BIT      00A4H  1
P15. . . . . . . . . . . . . . . . . .  ABSBIT   -----  BIT      0095H  1
P06. . . . . . . . . . . . . . . . . .  ABSBIT   -----  BIT      0086H  1
IPINT0 . . . . . . . . . . . . . . . .  ABSBIT   -----  BIT      00B8H  1
TIM4_COUNTDIRECTION_UP . . . . . . . .  E_CONST  -----  U_CHAR   -----  1
P52. . . . . . . . . . . . . . . . . .  ABSBIT   -----  BIT      00DAH  1
P43. . . . . . . . . . . . . . . . . .  ABSBIT   -----  BIT      00C3H  1
P34. . . . . . . . . . . . . . . . . .  ABSBIT   -----  BIT      00B4H  1
P25. . . . . . . . . . . . . . . . . .  ABSBIT   -----  BIT      00A5H  1
P16. . . . . . . . . . . . . . . . . .  ABSBIT   -----  BIT      0096H  1
P07. . . . . . . . . . . . . . . . . .  ABSBIT   -----  BIT      0087H  1
IPINT1 . . . . . . . . . . . . . . . .  ABSBIT   -----  BIT      00BAH  1
P53. . . . . . . . . . . . . . . . . .  ABSBIT   -----  BIT      00DBH  1
P44. . . . . . . . . . . . . . . . . .  ABSBIT   -----  BIT      00C4H  1
P35. . . . . . . . . . . . . . . . . .  ABSBIT   -----  BIT      00B5H  1
P26. . . . . . . . . . . . . . . . . .  ABSBIT   -----  BIT      00A6H  1
P17. . . . . . . . . . . . . . . . . .  ABSBIT   -----  BIT      0097H  1
CRCREG . . . . . . . . . . . . . . . .  SFR      DATA   U_CHAR   00FDH  1
PWM06PWM07 . . . . . . . . . . . . . .  E_CONST  -----  U_CHAR   -----  1
P54. . . . . . . . . . . . . . . . . .  ABSBIT   -----  BIT      00DCH  1
P45. . . . . . . . . . . . . . . . . .  ABSBIT   -----  BIT      00C5H  1
P36. . . . . . . . . . . . . . . . . .  ABSBIT   -----  BIT      00B6H  1
P27. . . . . . . . . . . . . . . . . .  ABSBIT   -----  BIT      00A7H  1
_PWM_Aligned_Mode_Select . . . . . . .  PUBLIC   CODE   PROC     0000H  -----
  PWM_Aligned_Mode . . . . . . . . . .  * REG *  DATA   U_CHAR   0007H  1
P55. . . . . . . . . . . . . . . . . .  ABSBIT   -----  BIT      00DDH  1
P46. . . . . . . . . . . . . . . . . .  ABSBIT   -----  BIT      00C6H  1
P37. . . . . . . . . . . . . . . . . .  ABSBIT   -----  BIT      00B7H  1
P47. . . . . . . . . . . . . . . . . .  ABSBIT   -----  BIT      00C7H  1
NAME                                    CLASS   MSPACE  TYPE    OFFSET  SIZE
EXFX . . . . . . . . . . . . . . . . .  ABSBIT   -----  BIT      00CEH  1
DDRCON . . . . . . . . . . . . . . . .  SFR      DATA   U_CHAR   0093H  1
StatusTypeDef. . . . . . . . . . . . .  TYPEDEF  -----  U_CHAR   -----  1
IAPCTL . . . . . . . . . . . . . . . .  SFR      DATA   U_CHAR   00F6H  1
IE1. . . . . . . . . . . . . . . . . .  SFR      DATA   U_CHAR   00A9H  1
_PWM_ComplementaryModeConfigEX . . . .  PUBLIC   CODE   PROC     0000H  -----
  PWM_OutputPin. . . . . . . . . . . .  * REG *  DATA   U_CHAR   0002H  1
  PWM_DutyCycle. . . . . . . . . . . .  * REG *  DATA   U_INT    0004H  2
  PWM_OutputState. . . . . . . . . . .  * REG *  DATA   U_CHAR   0003H  1
IE2. . . . . . . . . . . . . . . . . .  SFR      DATA   U_CHAR   00AAH  1
TIM2_WorkMode_TypeDef. . . . . . . . .  TYPEDEF  -----  U_CHAR   -----  1
_PWM_GetFaultDetectionFlagStatusEX . .  PUBLIC   CODE   PROC     0000H  -----
  PWM_Type . . . . . . . . . . . . . .  * REG *  DATA   U_CHAR   0007H  1
TRUE . . . . . . . . . . . . . . . . .  E_CONST  -----  U_CHAR   -----  1
B. . . . . . . . . . . . . . . . . . .  SFR      DATA   U_CHAR   00F0H  1
TIM3_WorkMode_TypeDef. . . . . . . . .  TYPEDEF  -----  U_CHAR   -----  1
PWM_DutyChange_Dowm. . . . . . . . . .  E_CONST  -----  U_CHAR   -----  1
CMPCON . . . . . . . . . . . . . . . .  SFR      DATA   U_CHAR   00B7H  1
TIM4_WorkMode_TypeDef. . . . . . . . .  TYPEDEF  -----  U_CHAR   -----  1
PWM_Polarity_TypeDef . . . . . . . . .  TYPEDEF  -----  U_CHAR   -----  1
IAPKEY . . . . . . . . . . . . . . . .  SFR      DATA   U_CHAR   00F1H  1
BTMCON . . . . . . . . . . . . . . . .  SFR      DATA   U_CHAR   00FBH  1
TIM2_FLAG_TF2. . . . . . . . . . . . .  E_CONST  -----  U_CHAR   -----  1
PWMCFG . . . . . . . . . . . . . . . .  SFR      DATA   U_CHAR   00D1H  1
ACC. . . . . . . . . . . . . . . . . .  SFR      DATA   U_CHAR   00E0H  1
TIM3_FLAG_TF3. . . . . . . . . . . . .  E_CONST  -----  U_CHAR   -----  1
TIM2_CountDirection_TypeDef. . . . . .  TYPEDEF  -----  U_CHAR   -----  1
RCAPXH . . . . . . . . . . . . . . . .  SFR      DATA   U_CHAR   00CBH  1
TIM3_CountDirection_TypeDef. . . . . .  TYPEDEF  -----  U_CHAR   -----  1
ET0. . . . . . . . . . . . . . . . . .  ABSBIT   -----  BIT      00A9H  1
CRCINX . . . . . . . . . . . . . . . .  SFR      DATA   U_CHAR   00FCH  1
TIM4_FLAG_TF4. . . . . . . . . . . . .  E_CONST  -----  U_CHAR   -----  1
TIM4_CountDirection_TypeDef. . . . . .  TYPEDEF  -----  U_CHAR   -----  1
_PWM_OutputStateConfig . . . . . . . .  PUBLIC   CODE   PROC     0000H  -----
  PWM_OutputPin. . . . . . . . . . . .  * REG *  DATA   U_CHAR   0007H  1
  PWM_OutputState. . . . . . . . . . .  * REG *  DATA   U_CHAR   0005H  1
  Reg_Data . . . . . . . . . . . . . .  * REG *  DATA   U_CHAR   0006H  1
TF0. . . . . . . . . . . . . . . . . .  ABSBIT   -----  BIT      008DH  1
ET1. . . . . . . . . . . . . . . . . .  ABSBIT   -----  BIT      00ABH  1
ADCCFG0. . . . . . . . . . . . . . . .  SFR      DATA   U_CHAR   00ABH  1
IP1. . . . . . . . . . . . . . . . . .  SFR      DATA   U_CHAR   00B9H  1
TF1. . . . . . . . . . . . . . . . . .  ABSBIT   -----  BIT      008FH  1
ET2. . . . . . . . . . . . . . . . . .  ABSBIT   -----  BIT      00ADH  1
ADCCFG1. . . . . . . . . . . . . . . .  SFR      DATA   U_CHAR   00ACH  1
IP2. . . . . . . . . . . . . . . . . .  SFR      DATA   U_CHAR   00BAH  1
ROMBNK . . . . . . . . . . . . . . . .  SFR      DATA   U_CHAR   00DFH  1
_PWM_IndependentModeConfigEX . . . . .  PUBLIC   CODE   PROC     0000H  -----
  PWM_ComplementaryOutputPin . . . . .  * REG *  DATA   U_CHAR   0002H  1
  PWM_DutyCycle. . . . . . . . . . . .  * REG *  DATA   U_INT    0004H  2
  PWM_OutputState. . . . . . . . . . .  * REG *  DATA   U_CHAR   0003H  1
RB8. . . . . . . . . . . . . . . . . .  ABSBIT   -----  BIT      009AH  1
ADCCFG2. . . . . . . . . . . . . . . .  SFR      DATA   U_CHAR   00B5H  1
RCAPXL . . . . . . . . . . . . . . . .  SFR      DATA   U_CHAR   00CAH  1
TH0. . . . . . . . . . . . . . . . . .  SFR      DATA   U_CHAR   008CH  1
_PWM_ITConfig. . . . . . . . . . . . .  PUBLIC   CODE   PROC     0000H  -----
  NewState . . . . . . . . . . . . . .  * REG *  DATA   U_CHAR   0007H  1
  Priority . . . . . . . . . . . . . .  * REG *  DATA   U_CHAR   0005H  1
NAME                                    CLASS   MSPACE  TYPE    OFFSET  SIZE
PWM_FaultDetectionVoltageSelect_TypeDef TYPEDEF  -----  U_CHAR   -----  1
TH1. . . . . . . . . . . . . . . . . .  SFR      DATA   U_CHAR   008DH  1
TIM2_PRESSEL_FSYS_D12. . . . . . . . .  E_CONST  -----  U_CHAR   -----  1
TB8. . . . . . . . . . . . . . . . . .  ABSBIT   -----  BIT      009BH  1
TIM3_PRESSEL_FSYS_D12. . . . . . . . .  E_CONST  -----  U_CHAR   -----  1
TIM2_COUNTDIRECTION_DOWN_UP. . . . . .  E_CONST  -----  U_CHAR   -----  1
uint8_t. . . . . . . . . . . . . . . .  TYPEDEF  -----  U_CHAR   -----  1
P. . . . . . . . . . . . . . . . . . .  ABSBIT   -----  BIT      00D0H  1
TIM4_PRESSEL_FSYS_D12. . . . . . . . .  E_CONST  -----  U_CHAR   -----  1
TIM3_COUNTDIRECTION_DOWN_UP. . . . . .  E_CONST  -----  U_CHAR   -----  1
_PWM_DeadTimeConfigEX. . . . . . . . .  PUBLIC   CODE   PROC     0000H  -----
  PWM_Type . . . . . . . . . . . . . .  * REG *  DATA   U_CHAR   0007H  1
  PWM_RisingDeadTime . . . . . . . . .  * REG *  DATA   U_CHAR   0005H  1
  PWM_FallingDeadTime. . . . . . . . .  * REG *  DATA   U_CHAR   0003H  1
SM0. . . . . . . . . . . . . . . . . .  ABSBIT   -----  BIT      009FH  1
TL0. . . . . . . . . . . . . . . . . .  SFR      DATA   U_CHAR   008AH  1
TIM4_COUNTDIRECTION_DOWN_UP. . . . . .  E_CONST  -----  U_CHAR   -----  1
SM1. . . . . . . . . . . . . . . . . .  ABSBIT   -----  BIT      009EH  1
WDTCON . . . . . . . . . . . . . . . .  SFR      DATA   U_CHAR   00CFH  1
TL1. . . . . . . . . . . . . . . . . .  SFR      DATA   U_CHAR   008BH  1
PWM0_WaveFilteringTime_0us . . . . . .  E_CONST  -----  U_CHAR   -----  1
SM2. . . . . . . . . . . . . . . . . .  ABSBIT   -----  BIT      009DH  1
PWMDFR . . . . . . . . . . . . . . . .  SFR      DATA   U_CHAR   00D6H  1
PWMPDH . . . . . . . . . . . . . . . .  SFR      DATA   U_CHAR   00D5H  1
PWM0_WaveFilteringTime_1us . . . . . .  E_CONST  -----  U_CHAR   -----  1
PWMREG . . . . . . . . . . . . . . . .  PUBLIC   XDATA  ARRAY    2034H  28
_PWM_FaultDetectionConfig. . . . . . .  PUBLIC   CODE   PROC     0000H  -----
  NewState . . . . . . . . . . . . . .  * REG *  DATA   U_CHAR   0007H  1
PWM_POLARITY_NON_INVERT. . . . . . . .  E_CONST  -----  U_CHAR   -----  1
PWM00. . . . . . . . . . . . . . . . .  E_CONST  -----  U_CHAR   -----  1
RS0. . . . . . . . . . . . . . . . . .  ABSBIT   -----  BIT      00D3H  1
TIM2_PresSel_TypeDef . . . . . . . . .  TYPEDEF  -----  U_CHAR   -----  1
PWM0_WaveFilteringTime_4us . . . . . .  E_CONST  -----  U_CHAR   -----  1
PWM01. . . . . . . . . . . . . . . . .  E_CONST  -----  U_CHAR   -----  1
TR0. . . . . . . . . . . . . . . . . .  ABSBIT   -----  BIT      008CH  1
RS1. . . . . . . . . . . . . . . . . .  ABSBIT   -----  BIT      00D4H  1
PWMPDL . . . . . . . . . . . . . . . .  SFR      DATA   U_CHAR   00D4H  1
TIM3_PresSel_TypeDef . . . . . . . . .  TYPEDEF  -----  U_CHAR   -----  1
PWM_OUTPUTSTATE_ENABLE . . . . . . . .  E_CONST  -----  U_CHAR   -----  1
PWM20. . . . . . . . . . . . . . . . .  E_CONST  -----  U_CHAR   -----  1
PWM02. . . . . . . . . . . . . . . . .  E_CONST  -----  U_CHAR   -----  1
TR1. . . . . . . . . . . . . . . . . .  ABSBIT   -----  BIT      008EH  1
IPUART . . . . . . . . . . . . . . . .  ABSBIT   -----  BIT      00BCH  1
TIM4_PresSel_TypeDef . . . . . . . . .  TYPEDEF  -----  U_CHAR   -----  1
PWM0_Center_Alignment_Mode . . . . . .  E_CONST  -----  U_CHAR   -----  1
PWM30. . . . . . . . . . . . . . . . .  E_CONST  -----  U_CHAR   -----  1
PWM21. . . . . . . . . . . . . . . . .  E_CONST  -----  U_CHAR   -----  1
PWM03. . . . . . . . . . . . . . . . .  E_CONST  -----  U_CHAR   -----  1
s32. . . . . . . . . . . . . . . . . .  TYPEDEF  -----  LONG     -----  4
PWM40. . . . . . . . . . . . . . . . .  E_CONST  -----  U_CHAR   -----  1
PWM31. . . . . . . . . . . . . . . . .  E_CONST  -----  U_CHAR   -----  1
PWM04. . . . . . . . . . . . . . . . .  E_CONST  -----  U_CHAR   -----  1
int8_t . . . . . . . . . . . . . . . .  TYPEDEF  -----  CHAR     -----  1
_PWM_ClearFlagEX . . . . . . . . . . .  PUBLIC   CODE   PROC     0000H  -----
  PWM_Type . . . . . . . . . . . . . .  * REG *  DATA   U_CHAR   0007H  1
PWM41. . . . . . . . . . . . . . . . .  E_CONST  -----  U_CHAR   -----  1
PWM05. . . . . . . . . . . . . . . . .  E_CONST  -----  U_CHAR   -----  1
NAME                                    CLASS   MSPACE  TYPE    OFFSET  SIZE
u32. . . . . . . . . . . . . . . . . .  TYPEDEF  -----  U_LONG   -----  4
s16. . . . . . . . . . . . . . . . . .  TYPEDEF  -----  INT      -----  2
PWM06. . . . . . . . . . . . . . . . .  E_CONST  -----  U_CHAR   -----  1
PWM0_Latch_Mode. . . . . . . . . . . .  E_CONST  -----  U_CHAR   -----  1
PWM07. . . . . . . . . . . . . . . . .  E_CONST  -----  U_CHAR   -----  1
u16. . . . . . . . . . . . . . . . . .  TYPEDEF  -----  U_INT    -----  2
PWMFLT . . . . . . . . . . . . . . . .  SFR      DATA   U_CHAR   00D7H  1
DPH. . . . . . . . . . . . . . . . . .  SFR      DATA   U_CHAR   0083H  1
_PWM_FaultDetectionModeConfig. . . . .  PUBLIC   CODE   PROC     0000H  -----
  FaultDetectionMode . . . . . . . . .  * REG *  DATA   U_CHAR   0007H  1
  FaultDetectionVoltageSelect. . . . .  * REG *  DATA   U_CHAR   0005H  1
  FaultDetectionWaveFilteringTime. . .  * REG *  DATA   U_CHAR   0003H  1
PWM_DutyChange_TypeDef . . . . . . . .  TYPEDEF  -----  U_CHAR   -----  1
DPL. . . . . . . . . . . . . . . . . .  SFR      DATA   U_CHAR   0082H  1
EINT0. . . . . . . . . . . . . . . . .  ABSBIT   -----  BIT      00A8H  1
P0CON. . . . . . . . . . . . . . . . .  SFR      DATA   U_CHAR   009AH  1
PWM_ClearFaultDetectionFlag. . . . . .  PUBLIC   CODE   PROC     0000H  -----
EINT1. . . . . . . . . . . . . . . . .  ABSBIT   -----  BIT      00AAH  1
IPADC. . . . . . . . . . . . . . . . .  ABSBIT   -----  BIT      00BEH  1
INT0F. . . . . . . . . . . . . . . . .  SFR      DATA   U_CHAR   00B4H  1
P1CON. . . . . . . . . . . . . . . . .  SFR      DATA   U_CHAR   0091H  1
INT1F. . . . . . . . . . . . . . . . .  SFR      DATA   U_CHAR   00BCH  1
P2CON. . . . . . . . . . . . . . . . .  SFR      DATA   U_CHAR   00A1H  1
PWM_FaultDetectionWaveFilteringTime_Ty  TYPEDEF  -----  U_CHAR   -----  1
INT2F. . . . . . . . . . . . . . . . .  SFR      DATA   U_CHAR   00BEH  1
P3CON. . . . . . . . . . . . . . . . .  SFR      DATA   U_CHAR   00B1H  1
REN. . . . . . . . . . . . . . . . . .  ABSBIT   -----  BIT      009CH  1
P4CON. . . . . . . . . . . . . . . . .  SFR      DATA   U_CHAR   00C1H  1
P5CON. . . . . . . . . . . . . . . . .  SFR      DATA   U_CHAR   00D9H  1
ADCVH. . . . . . . . . . . . . . . . .  SFR      DATA   U_CHAR   00AFH  1
DPS. . . . . . . . . . . . . . . . . .  SFR      DATA   U_CHAR   0086H  1
_PWM_Cmd . . . . . . . . . . . . . . .  PUBLIC   CODE   PROC     0000H  -----
  NewState . . . . . . . . . . . . . .  * REG *  DATA   U_CHAR   0007H  1
US0CON0. . . . . . . . . . . . . . . .  SFR      DATA   U_CHAR   0095H  1
_PWM_Init. . . . . . . . . . . . . . .  PUBLIC   CODE   PROC     0000H  -----
  PWM_PresSel. . . . . . . . . . . . .  * REG *  DATA   U_CHAR   0003H  1
  PWM_Period . . . . . . . . . . . . .  * REG *  DATA   U_INT    0004H  2
_PWM_ITConfigEX. . . . . . . . . . . .  PUBLIC   CODE   PROC     0000H  -----
  PWM_Type . . . . . . . . . . . . . .  * REG *  DATA   U_CHAR   0007H  1
  NewState . . . . . . . . . . . . . .  * REG *  DATA   U_CHAR   0005H  1
  Priority . . . . . . . . . . . . . .  * REG *  DATA   U_CHAR   0003H  1
US1CON0. . . . . . . . . . . . . . . .  SFR      DATA   U_CHAR   00A4H  1
US0CON1. . . . . . . . . . . . . . . .  SFR      DATA   U_CHAR   009DH  1
ADCVL. . . . . . . . . . . . . . . . .  SFR      DATA   U_CHAR   00AEH  1
EXADH. . . . . . . . . . . . . . . . .  SFR      DATA   U_CHAR   00F7H  1
SET. . . . . . . . . . . . . . . . . .  E_CONST  -----  U_CHAR   -----  1
FALSE. . . . . . . . . . . . . . . . .  E_CONST  -----  U_CHAR   -----  1
US1CON1. . . . . . . . . . . . . . . .  SFR      DATA   U_CHAR   00A5H  1
US0CON2. . . . . . . . . . . . . . . .  SFR      DATA   U_CHAR   009EH  1
US1CON2. . . . . . . . . . . . . . . .  SFR      DATA   U_CHAR   00A6H  1
US0CON3. . . . . . . . . . . . . . . .  SFR      DATA   U_CHAR   009FH  1
PWM_DutyChange_Up. . . . . . . . . . .  E_CONST  -----  U_CHAR   -----  1
US1CON3. . . . . . . . . . . . . . . .  SFR      DATA   U_CHAR   00A7H  1
INT0R. . . . . . . . . . . . . . . . .  SFR      DATA   U_CHAR   00BBH  1
INT1R. . . . . . . . . . . . . . . . .  SFR      DATA   U_CHAR   00BDH  1
PriorityStatus . . . . . . . . . . . .  TYPEDEF  -----  U_CHAR   -----  1
INT2R. . . . . . . . . . . . . . . . .  SFR      DATA   U_CHAR   00BFH  1
NAME                                    CLASS   MSPACE  TYPE    OFFSET  SIZE
USXINX . . . . . . . . . . . . . . . .  SFR      DATA   U_CHAR   00DCH  1
LOW. . . . . . . . . . . . . . . . . .  E_CONST  -----  U_CHAR   -----  1
TFX. . . . . . . . . . . . . . . . . .  ABSBIT   -----  BIT      00CFH  1
IOHCON0. . . . . . . . . . . . . . . .  SFR      DATA   U_CHAR   0096H  1
_PWM_FaultDetectionConfigEX. . . . . .  PUBLIC   CODE   PROC     0000H  -----
  PWM_Type . . . . . . . . . . . . . .  * REG *  DATA   U_CHAR   0007H  1
  NewState . . . . . . . . . . . . . .  * REG *  DATA   U_CHAR   0005H  1
IOHCON1. . . . . . . . . . . . . . . .  SFR      DATA   U_CHAR   0097H  1
Status_ERROR . . . . . . . . . . . . .  E_CONST  -----  U_CHAR   -----  1
THX. . . . . . . . . . . . . . . . . .  SFR      DATA   U_CHAR   00CDH  1
F0 . . . . . . . . . . . . . . . . . .  ABSBIT   -----  BIT      00D5H  1
DISABLE. . . . . . . . . . . . . . . .  E_CONST  -----  U_CHAR   -----  1
F1 . . . . . . . . . . . . . . . . . .  ABSBIT   -----  BIT      00D1H  1
TLX. . . . . . . . . . . . . . . . . .  SFR      DATA   U_CHAR   00CCH  1
TIM2_WORK_MODE0. . . . . . . . . . . .  E_CONST  -----  U_CHAR   -----  1
TIM3_WORK_MODE0. . . . . . . . . . . .  E_CONST  -----  U_CHAR   -----  1
TIM2_WORK_MODE1. . . . . . . . . . . .  E_CONST  -----  U_CHAR   -----  1
PSW. . . . . . . . . . . . . . . . . .  SFR      DATA   U_CHAR   00D0H  1
TIM4_WORK_MODE0. . . . . . . . . . . .  E_CONST  -----  U_CHAR   -----  1
TIM3_WORK_MODE1. . . . . . . . . . . .  E_CONST  -----  U_CHAR   -----  1
_PWM_FaultDetectionModeConfigEX. . . .  PUBLIC   CODE   PROC     0000H  -----
  PWM_Type . . . . . . . . . . . . . .  AUTO     DATA   U_CHAR   0007H  1
  FaultDetectionMode . . . . . . . . .  AUTO     DATA   U_CHAR   0005H  1
  FaultDetectionVoltageSelect. . . . .  AUTO     DATA   U_CHAR   0003H  1
  FaultDetectionWaveFilteringTime. . .  AUTO     XDATA  U_CHAR   0003H  1
TIM4_WORK_MODE1. . . . . . . . . . . .  E_CONST  -----  U_CHAR   -----  1
TIM2_WORK_MODE3. . . . . . . . . . . .  E_CONST  -----  U_CHAR   -----  1
PWM_GetFlagStatus. . . . . . . . . . .  PUBLIC   CODE   PROC     0000H  -----
uint32_t . . . . . . . . . . . . . . .  TYPEDEF  -----  U_LONG   -----  4
TIM3_WORK_MODE3. . . . . . . . . . . .  E_CONST  -----  U_CHAR   -----  1
PWM0_Edge_Aligned_Mode . . . . . . . .  E_CONST  -----  U_CHAR   -----  1
MODULE INFORMATION:   STATIC OVERLAYABLE
   CODE SIZE        =   1170    ----
   CONSTANT SIZE    =   ----    ----
   XDATA SIZE       =   ----      21
   PDATA SIZE       =   ----    ----
   DATA SIZE        =   ----    ----
   IDATA SIZE       =   ----    ----
   BIT SIZE         =   ----    ----
   EDATA SIZE       =   ----    ----
   HDATA SIZE       =   ----    ----
   XDATA CONST SIZE =   ----    ----
   FAR CONST SIZE   =   ----    ----
END OF MODULE INFORMATION.
C51 COMPILATION COMPLETE.  0 WARNING(S),  0 ERROR(S)
